EXPORTS 
	??_R0?AVbad_alloc@std@@@8 	 DATA
	??_R0?AVbad_array_new_length@std@@@8 	 DATA
	??_R0?AVexception@std@@@8 	 DATA
	?EmptyString@ImGuiTextBuffer@@2PADA 	 DATA
	?GImGui@@3PEAUImGuiContext@@EA 	 DATA
	?GImGuiDemoMarkerCallback@@3P6AXPEBDH0PEAX@ZEA 	 DATA
	?GImGuiDemoMarkerCallbackUserData@@3PEAXEA 	 DATA
	?_OptionsStorage@?1??__local_stdio_printf_options@@9@4_KA 	 DATA
	?_OptionsStorage@?1??__local_stdio_scanf_options@@9@4_KA 	 DATA
	?g_bInitialised@@3_NA 	 DATA
	?g_bShowMenu@@3_NA 	 DATA
	?g_bShutdown@@3_NA 	 DATA
	?g_fpLogFile@@3PEAU_iobuf@@EA 	 DATA
	?g_hWindow@@3PEAUHWND__@@EA 	 DATA
	?g_pOldWndProc@@3P6A_JPEAUHWND__@@I_K_J@ZEA 	 DATA
	?hde64_table@@3PAEA 	 DATA
	?oEndScene@@3P6AJPEAUIDirect3DDevice9@@@ZEA 	 DATA
	?oProcessEvent@@3P6AXPEAX00@ZEA 	 DATA
	?s_current_sort_specs@ExampleAsset@@2PEBUImGuiTableSortSpecs@@EB 	 DATA
	_Avx2WmemEnabledWeakValue 	 DATA
	?<lambda_invoker_cdecl>@<lambda_254ec43acd642adb2a6ba40c6026f04c>@@CA@PEAUImGuiSelectionBasicStorage@@H@Z
	?<lambda_invoker_cdecl>@<lambda_a9a5070e6bdfdae05b31fc6916a3c4d1>@@CA@PEAUImGuiSelectionBasicStorage@@H@Z
	??$ApplyDeletionPostLoop@H@ExampleSelectionWithDeletion@@QEAAXPEAUImGuiMultiSelectIO@@AEAU?$ImVector@H@@H@Z
	??$ApplyDeletionPostLoop@I@ExampleSelectionWithDeletion@@QEAAXPEAUImGuiMultiSelectIO@@AEAU?$ImVector@I@@H@Z
	??$ApplyDeletionPostLoop@UExampleAsset@@@ExampleSelectionWithDeletion@@QEAAXPEAUImGuiMultiSelectIO@@AEAU?$ImVector@UExampleAsset@@@@H@Z
	??$CheckboxFlagsT@H@ImGui@@YA_NPEBDPEAHH@Z
	??$CheckboxFlagsT@I@ImGui@@YA_NPEBDPEAII@Z
	??$CheckboxFlagsT@_J@ImGui@@YA_NPEBDPEA_J_J@Z
	??$CheckboxFlagsT@_K@ImGui@@YA_NPEBDPEA_K_K@Z
	??$DragBehaviorT@HHM@ImGui@@YA_NHPEAHMHHPEBDH@Z
	??$DragBehaviorT@IHM@ImGui@@YA_NHPEAIMIIPEBDH@Z
	??$DragBehaviorT@MMM@ImGui@@YA_NHPEAMMMMPEBDH@Z
	??$DragBehaviorT@NNN@ImGui@@YA_NHPEANMNNPEBDH@Z
	??$DragBehaviorT@_J_JN@ImGui@@YA_NHPEA_JM_J1PEBDH@Z
	??$DragBehaviorT@_K_JN@ImGui@@YA_NHPEA_KM_K1PEBDH@Z
	??$GetSpan@F@?$ImSpanAllocator@$05@@QEAAXHPEAU?$ImSpan@F@@@Z
	??$GetSpan@UImGuiTableCellData@@@?$ImSpanAllocator@$05@@QEAAXHPEAU?$ImSpan@UImGuiTableCellData@@@@@Z
	??$GetSpan@UImGuiTableColumn@@@?$ImSpanAllocator@$05@@QEAAXHPEAU?$ImSpan@UImGuiTableColumn@@@@@Z
	??$IID_PPV_ARGS_Helper@UIDXGIAdapter@@@@YAPEAPEAXPEAPEAUIDXGIAdapter@@@Z
	??$IID_PPV_ARGS_Helper@UIDXGIDevice@@@@YAPEAPEAXPEAPEAUIDXGIDevice@@@Z
	??$IID_PPV_ARGS_Helper@UIDXGIFactory@@@@YAPEAPEAXPEAPEAUIDXGIFactory@@@Z
	??$IM_DELETE@D@@YAXPEAD@Z
	??$IM_DELETE@UExampleTreeNode@@@@YAXPEAUExampleTreeNode@@@Z
	??$IM_DELETE@UImDrawList@@@@YAXPEAUImDrawList@@@Z
	??$IM_DELETE@UImFont@@@@YAXPEAUImFont@@@Z
	??$IM_DELETE@UImFontAtlas@@@@YAXPEAUImFontAtlas@@@Z
	??$IM_DELETE@UImFontAtlasBuilder@@@@YAXPEAUImFontAtlasBuilder@@@Z
	??$IM_DELETE@UImGuiContext@@@@YAXPEAUImGuiContext@@@Z
	??$IM_DELETE@UImGuiViewportP@@@@YAXPEAUImGuiViewportP@@@Z
	??$IM_DELETE@UImGuiWindow@@@@YAXPEAUImGuiWindow@@@Z
	??$IM_DELETE@UImGui_ImplDX11_Data@@@@YAXPEAUImGui_ImplDX11_Data@@@Z
	??$IM_DELETE@UImGui_ImplDX11_Texture@@@@YAXPEAUImGui_ImplDX11_Texture@@@Z
	??$IM_DELETE@UImGui_ImplDX9_Data@@@@YAXPEAUImGui_ImplDX9_Data@@@Z
	??$IM_DELETE@UImGui_ImplStbTrueType_FontSrcData@@@@YAXPEAUImGui_ImplStbTrueType_FontSrcData@@@Z
	??$IM_DELETE@UImGui_ImplWin32_Data@@@@YAXPEAUImGui_ImplWin32_Data@@@Z
	??$IM_DELETE@UImTextureData@@@@YAXPEAUImTextureData@@@Z
	??$IM_DELETE@USTB_TexteditState@ImStb@@@@YAXPEAUSTB_TexteditState@ImStb@@@Z
	??$RoundScalarWithFormatT@H@ImGui@@YAHPEBDHH@Z
	??$RoundScalarWithFormatT@I@ImGui@@YAIPEBDHI@Z
	??$RoundScalarWithFormatT@M@ImGui@@YAMPEBDHM@Z
	??$RoundScalarWithFormatT@N@ImGui@@YANPEBDHN@Z
	??$RoundScalarWithFormatT@_J@ImGui@@YA_JPEBDH_J@Z
	??$RoundScalarWithFormatT@_K@ImGui@@YA_KPEBDH_K@Z
	??$ScaleRatioFromValueT@HHM@ImGui@@YAMHHHH_NMM@Z
	??$ScaleRatioFromValueT@IHM@ImGui@@YAMHIII_NMM@Z
	??$ScaleRatioFromValueT@MMM@ImGui@@YAMHMMM_NMM@Z
	??$ScaleRatioFromValueT@NNN@ImGui@@YAMHNNN_NMM@Z
	??$ScaleRatioFromValueT@_J_JN@ImGui@@YAMH_J00_NMM@Z
	??$ScaleRatioFromValueT@_K_JN@ImGui@@YAMH_K00_NMM@Z
	??$ScaleValueFromRatioT@HHM@ImGui@@YAHHMHH_NMM@Z
	??$ScaleValueFromRatioT@IHM@ImGui@@YAIHMII_NMM@Z
	??$ScaleValueFromRatioT@MMM@ImGui@@YAMHMMM_NMM@Z
	??$ScaleValueFromRatioT@NNN@ImGui@@YANHMNN_NMM@Z
	??$ScaleValueFromRatioT@_J_JN@ImGui@@YA_JHM_J0_NMM@Z
	??$ScaleValueFromRatioT@_K_JN@ImGui@@YA_KHM_K0_NMM@Z
	??$SliderBehaviorT@HHM@ImGui@@YA_NAEBUImRect@@IHPEAHHHPEBDHPEAU1@@Z
	??$SliderBehaviorT@IHM@ImGui@@YA_NAEBUImRect@@IHPEAIIIPEBDHPEAU1@@Z
	??$SliderBehaviorT@MMM@ImGui@@YA_NAEBUImRect@@IHPEAMMMPEBDHPEAU1@@Z
	??$SliderBehaviorT@NNN@ImGui@@YA_NAEBUImRect@@IHPEANNNPEBDHPEAU1@@Z
	??$SliderBehaviorT@_J_JN@ImGui@@YA_NAEBUImRect@@IHPEA_J_J2PEBDHPEAU1@@Z
	??$SliderBehaviorT@_K_JN@ImGui@@YA_NAEBUImRect@@IHPEA_K_K2PEBDHPEAU1@@Z
	??$_Allocate@$0BA@U_Default_allocate_traits@std@@@std@@YAPEAX_K@Z
	??$_Allocate_at_least_helper@V?$allocator@D@std@@@std@@YAPEADAEAV?$allocator@D@0@AEA_K@Z
	??$_Allocate_for_capacity@$0A@@?$basic_string@DU?$char_traits@D@std@@V?$allocator@D@2@@std@@CAPEADAEAV?$allocator@D@1@AEA_K@Z
	??$_Allocate_manually_vector_aligned@U_Default_allocate_traits@std@@@std@@YAPEAX_K@Z
	??$_Construct_in_place@PEADAEBQEAD@std@@YAXAEAPEADAEBQEAD@Z
	??$_Deallocate@$0BA@@std@@YAXPEAX_K@Z
	??$_Get_size_of_n@$00@std@@YA_K_K@Z
	??$_Max_limit@_J@std@@YA_JXZ
	??$_Reallocate_grow_by@V<lambda_e1befb086ad3257e3f042a63030725f7>@@_KD@?$basic_string@DU?$char_traits@D@std@@V?$allocator@D@2@@std@@AEAAAEAV01@_KV<lambda_e1befb086ad3257e3f042a63030725f7>@@_KD@Z
	??$_Unfancy@D@std@@YAPEADPEAD@Z
	??$addressof@PEAD@std@@YAPEAPEADAEAPEAD@Z
	??$exchange@PEAU_Iterator_base12@std@@$$T@std@@YAPEAU_Iterator_base12@0@AEAPEAU10@$$QEA$$T@Z
	??$forward@AEBQEAD@std@@YAAEBQEADAEBQEAD@Z
	??$max@_K@std@@YAAEB_KAEB_K0@Z
	??$min@_K@std@@YAAEB_KAEB_K0@Z
	??0?$ImBitArray@$0JL@$0?CAA@@@QEAA@XZ
	??0?$ImBitArray@$0JL@$0A@@@QEAA@XZ
	??0?$ImChunkStream@UImGuiTableSettings@@@@QEAA@XZ
	??0?$ImChunkStream@UImGuiWindowSettings@@@@QEAA@XZ
	??0?$ImPool@UImGuiMultiSelectState@@@@QEAA@XZ
	??0?$ImPool@UImGuiTabBar@@@@QEAA@XZ
	??0?$ImPool@UImGuiTable@@@@QEAA@XZ
	??0?$ImSpan@F@@QEAA@XZ
	??0?$ImSpan@UImGuiTableCellData@@@@QEAA@XZ
	??0?$ImSpan@UImGuiTableColumn@@@@QEAA@XZ
	??0?$ImSpanAllocator@$05@@QEAA@XZ
	??0?$ImStableVector@UImFontBaked@@$0CA@@@QEAA@XZ
	??0?$ImVector@D@@QEAA@XZ
	??0?$ImVector@E@@QEAA@XZ
	??0?$ImVector@G@@QEAA@XZ
	??0?$ImVector@H@@QEAA@XZ
	??0?$ImVector@I@@QEAA@XZ
	??0?$ImVector@M@@QEAA@XZ
	??0?$ImVector@PEAD@@QEAA@XZ
	??0?$ImVector@PEAUExampleTreeNode@@@@QEAA@XZ
	??0?$ImVector@PEAUImDrawList@@@@QEAA@XZ
	??0?$ImVector@PEAUImDrawListSharedData@@@@QEAA@XZ
	??0?$ImVector@PEAUImFont@@@@QEAA@XZ
	??0?$ImVector@PEAUImFontAtlas@@@@QEAA@XZ
	??0?$ImVector@PEAUImFontBaked@@@@QEAA@XZ
	??0?$ImVector@PEAUImFontConfig@@@@QEAA@XZ
	??0?$ImVector@PEAUImGuiViewportP@@@@QEAA@XZ
	??0?$ImVector@PEAUImGuiWindow@@@@QEAA@XZ
	??0?$ImVector@PEAUImTextureData@@@@QEAA@XZ
	??0?$ImVector@PEAUMyDocument@@@@QEAA@XZ
	??0?$ImVector@PEBD@@QEAA@XZ
	??0?$ImVector@UExampleAsset@@@@QEAA@XZ
	??0?$ImVector@UImDrawChannel@@@@QEAA@XZ
	??0?$ImVector@UImDrawCmd@@@@QEAA@XZ
	??0?$ImVector@UImDrawVert@@@@QEAA@XZ
	??0?$ImVector@UImFontAtlasRectEntry@@@@QEAA@AEBU0@@Z
	??0?$ImVector@UImFontAtlasRectEntry@@@@QEAA@XZ
	??0?$ImVector@UImFontConfig@@@@QEAA@XZ
	??0?$ImVector@UImFontGlyph@@@@QEAA@XZ
	??0?$ImVector@UImFontStackData@@@@QEAA@XZ
	??0?$ImVector@UImGuiColorMod@@@@QEAA@XZ
	??0?$ImVector@UImGuiContextHook@@@@QEAA@XZ
	??0?$ImVector@UImGuiFocusScopeData@@@@QEAA@XZ
	??0?$ImVector@UImGuiGroupData@@@@QEAA@XZ
	??0?$ImVector@UImGuiInputEvent@@@@QEAA@XZ
	??0?$ImVector@UImGuiKeyRoutingData@@@@QEAA@XZ
	??0?$ImVector@UImGuiListClipperData@@@@QEAA@XZ
	??0?$ImVector@UImGuiListClipperRange@@@@QEAA@XZ
	??0?$ImVector@UImGuiMultiSelectState@@@@QEAA@XZ
	??0?$ImVector@UImGuiMultiSelectTempData@@@@QEAA@XZ
	??0?$ImVector@UImGuiOldColumnData@@@@QEAA@XZ
	??0?$ImVector@UImGuiOldColumns@@@@QEAA@XZ
	??0?$ImVector@UImGuiPopupData@@@@QEAA@XZ
	??0?$ImVector@UImGuiPtrOrIndex@@@@QEAA@XZ
	??0?$ImVector@UImGuiSelectionRequest@@@@QEAA@XZ
	??0?$ImVector@UImGuiSettingsHandler@@@@QEAA@XZ
	??0?$ImVector@UImGuiShrinkWidthItem@@@@QEAA@XZ
	??0?$ImVector@UImGuiStackLevelInfo@@@@QEAA@XZ
	??0?$ImVector@UImGuiStoragePair@@@@QEAA@XZ
	??0?$ImVector@UImGuiStyleMod@@@@QEAA@XZ
	??0?$ImVector@UImGuiTabBar@@@@QEAA@XZ
	??0?$ImVector@UImGuiTabItem@@@@QEAA@XZ
	??0?$ImVector@UImGuiTable@@@@QEAA@XZ
	??0?$ImVector@UImGuiTableColumnSortSpecs@@@@QEAA@XZ
	??0?$ImVector@UImGuiTableHeaderData@@@@QEAA@XZ
	??0?$ImVector@UImGuiTableInstanceData@@@@QEAA@XZ
	??0?$ImVector@UImGuiTableTempData@@@@QEAA@XZ
	??0?$ImVector@UImGuiTextRange@ImGuiTextFilter@@@@QEAA@XZ
	??0?$ImVector@UImGuiTreeNodeStackData@@@@QEAA@XZ
	??0?$ImVector@UImGuiWindowStackData@@@@QEAA@XZ
	??0?$ImVector@UImTextureRect@@@@QEAA@XZ
	??0?$ImVector@UImTextureRef@@@@QEAA@XZ
	??0?$ImVector@UImVec2@@@@QEAA@XZ
	??0?$ImVector@UImVec4@@@@QEAA@XZ
	??0?$ImVector@UMyDocument@@@@QEAA@XZ
	??0?$ImVector@Ustbrp_node@@@@QEAA@XZ
	??0?$ImVector@_W@@QEAA@XZ
	??0ExampleAppConsole@@QEAA@XZ
	??0ExampleAppDocuments@@QEAA@XZ
	??0ExampleAppLog@@QEAA@XZ
	??0ExampleAppPropertyEditor@@QEAA@XZ
	??0ExampleAsset@@QEAA@IH@Z
	??0ExampleAssetsBrowser@@QEAA@XZ
	??0ExampleDualListBox@@QEAA@XZ
	??0ExampleSelectionWithDeletion@@QEAA@XZ
	??0ExampleTreeNode@@QEAA@XZ
	??0ImColor@@QEAA@AEBUImVec4@@@Z
	??0ImColor@@QEAA@I@Z
	??0ImColor@@QEAA@MMMM@Z
	??0ImDrawChannel@@QEAA@XZ
	??0ImDrawCmd@@QEAA@XZ
	??0ImDrawCmdHeader@@QEAA@XZ
	??0ImDrawData@@QEAA@XZ
	??0ImDrawDataBuilder@@QEAA@XZ
	??0ImDrawList@@QEAA@PEAUImDrawListSharedData@@@Z
	??0ImDrawListSharedData@@QEAA@XZ
	??0ImDrawListSplitter@@QEAA@XZ
	??0ImFont@@QEAA@XZ
	??0ImFontAtlas@@QEAA@XZ
	??0ImFontAtlasBuilder@@QEAA@XZ
	??0ImFontAtlasRect@@QEAA@XZ
	??0ImFontBaked@@QEAA@XZ
	??0ImFontConfig@@QEAA@XZ
	??0ImFontGlyph@@QEAA@XZ
	??0ImFontLoader@@QEAA@XZ
	??0ImGuiBoxSelectState@@QEAA@XZ
	??0ImGuiColorMod@@QEAA@XZ
	??0ImGuiComboPreviewData@@QEAA@XZ
	??0ImGuiContext@@QEAA@PEAUImFontAtlas@@@Z
	??0ImGuiDebugAllocInfo@@QEAA@XZ
	??0ImGuiErrorRecoveryState@@QEAA@XZ
	??0ImGuiIDStackTool@@QEAA@XZ
	??0ImGuiIO@@QEAA@XZ
	??0ImGuiInputEvent@@QEAA@XZ
	??0ImGuiInputTextCallbackData@@QEAA@XZ
	??0ImGuiInputTextDeactivatedState@@QEAA@XZ
	??0ImGuiInputTextState@@QEAA@XZ
	??0ImGuiKeyOwnerData@@QEAA@XZ
	??0ImGuiKeyRoutingData@@QEAA@XZ
	??0ImGuiKeyRoutingTable@@QEAA@XZ
	??0ImGuiLastItemData@@QEAA@XZ
	??0ImGuiListClipper@@QEAA@XZ
	??0ImGuiListClipperData@@QEAA@XZ
	??0ImGuiMenuColumns@@QEAA@XZ
	??0ImGuiMetricsConfig@@QEAA@XZ
	??0ImGuiMultiSelectIO@@QEAA@XZ
	??0ImGuiMultiSelectState@@QEAA@XZ
	??0ImGuiMultiSelectTempData@@QEAA@XZ
	??0ImGuiNavItemData@@QEAA@XZ
	??0ImGuiNextItemData@@QEAA@XZ
	??0ImGuiNextWindowData@@QEAA@XZ
	??0ImGuiOldColumnData@@QEAA@XZ
	??0ImGuiOldColumns@@QEAA@XZ
	??0ImGuiPayload@@QEAA@XZ
	??0ImGuiPlatformIO@@QEAA@XZ
	??0ImGuiPlatformImeData@@QEAA@XZ
	??0ImGuiPlotArrayGetterData@@QEAA@PEBMH@Z
	??0ImGuiPopupData@@QEAA@XZ
	??0ImGuiPtrOrIndex@@QEAA@H@Z
	??0ImGuiPtrOrIndex@@QEAA@PEAX@Z
	??0ImGuiSelectionBasicStorage@@QEAA@XZ
	??0ImGuiSelectionExternalStorage@@QEAA@XZ
	??0ImGuiSettingsHandler@@QEAA@XZ
	??0ImGuiSizeCallbackData@@QEAA@XZ
	??0ImGuiStackLevelInfo@@QEAA@XZ
	??0ImGuiStorage@@QEAA@XZ
	??0ImGuiStoragePair@@QEAA@IH@Z
	??0ImGuiStoragePair@@QEAA@IM@Z
	??0ImGuiStoragePair@@QEAA@IPEAX@Z
	??0ImGuiStyle@@QEAA@XZ
	??0ImGuiStyleMod@@QEAA@HM@Z
	??0ImGuiStyleMod@@QEAA@HUImVec2@@@Z
	??0ImGuiTabBar@@QEAA@XZ
	??0ImGuiTabBarSection@@QEAA@XZ
	??0ImGuiTabItem@@QEAA@XZ
	??0ImGuiTable@@QEAA@XZ
	??0ImGuiTableColumn@@QEAA@XZ
	??0ImGuiTableColumnSettings@@QEAA@XZ
	??0ImGuiTableColumnSortSpecs@@QEAA@XZ
	??0ImGuiTableInstanceData@@QEAA@XZ
	??0ImGuiTableSettings@@QEAA@XZ
	??0ImGuiTableSortSpecs@@QEAA@XZ
	??0ImGuiTableTempData@@QEAA@XZ
	??0ImGuiTextBuffer@@QEAA@XZ
	??0ImGuiTextFilter@@QEAA@PEBD@Z
	??0ImGuiTextIndex@@QEAA@XZ
	??0ImGuiTextRange@ImGuiTextFilter@@QEAA@PEBD0@Z
	??0ImGuiTypingSelectState@@QEAA@XZ
	??0ImGuiViewport@@QEAA@XZ
	??0ImGuiViewportP@@QEAA@XZ
	??0ImGuiWindow@@QEAA@PEAUImGuiContext@@PEBD@Z
	??0ImGuiWindowSettings@@QEAA@XZ
	??0ImGuiWindowTempData@@QEAA@XZ
	??0ImGui_ImplDX11_Data@@QEAA@XZ
	??0ImGui_ImplDX9_Data@@QEAA@XZ
	??0ImGui_ImplWin32_Data@@QEAA@XZ
	??0ImRect@@QEAA@AEBUImVec2@@0@Z
	??0ImRect@@QEAA@AEBUImVec4@@@Z
	??0ImRect@@QEAA@MMMM@Z
	??0ImRect@@QEAA@XZ
	??0ImTextureData@@QEAA@XZ
	??0ImTextureRef@@QEAA@XZ
	??0ImTriangulator@@QEAA@XZ
	??0ImTriangulatorNodeSpan@@QEAA@XZ
	??0ImVec1@@QEAA@XZ
	??0ImVec2@@QEAA@MM@Z
	??0ImVec2@@QEAA@XZ
	??0ImVec2i@@QEAA@HH@Z
	??0ImVec2i@@QEAA@XZ
	??0ImVec2ih@@QEAA@AEBUImVec2@@@Z
	??0ImVec2ih@@QEAA@FF@Z
	??0ImVec2ih@@QEAA@XZ
	??0ImVec4@@QEAA@MMMM@Z
	??0ImVec4@@QEAA@XZ
	??0MyDocument@@QEAA@HPEBD_NAEBUImVec4@@@Z
	??0bad_alloc@std@@AEAA@QEBD@Z
	??0bad_alloc@std@@QEAA@AEBV01@@Z
	??0bad_array_new_length@std@@QEAA@AEBV01@@Z
	??0bad_array_new_length@std@@QEAA@XZ
	??0exception@std@@QEAA@AEBV01@@Z
	??0exception@std@@QEAA@QEBDH@Z
	??1?$ImChunkStream@UImGuiTableSettings@@@@QEAA@XZ
	??1?$ImChunkStream@UImGuiWindowSettings@@@@QEAA@XZ
	??1?$ImPool@UImGuiMultiSelectState@@@@QEAA@XZ
	??1?$ImPool@UImGuiTabBar@@@@QEAA@XZ
	??1?$ImPool@UImGuiTable@@@@QEAA@XZ
	??1?$ImStableVector@UImFontBaked@@$0CA@@@QEAA@XZ
	??1?$ImVector@D@@QEAA@XZ
	??1?$ImVector@E@@QEAA@XZ
	??1?$ImVector@G@@QEAA@XZ
	??1?$ImVector@H@@QEAA@XZ
	??1?$ImVector@I@@QEAA@XZ
	??1?$ImVector@M@@QEAA@XZ
	??1?$ImVector@PEAD@@QEAA@XZ
	??1?$ImVector@PEAUExampleTreeNode@@@@QEAA@XZ
	??1?$ImVector@PEAUImDrawList@@@@QEAA@XZ
	??1?$ImVector@PEAUImDrawListSharedData@@@@QEAA@XZ
	??1?$ImVector@PEAUImFont@@@@QEAA@XZ
	??1?$ImVector@PEAUImFontAtlas@@@@QEAA@XZ
	??1?$ImVector@PEAUImFontBaked@@@@QEAA@XZ
	??1?$ImVector@PEAUImFontConfig@@@@QEAA@XZ
	??1?$ImVector@PEAUImGuiViewportP@@@@QEAA@XZ
	??1?$ImVector@PEAUImGuiWindow@@@@QEAA@XZ
	??1?$ImVector@PEAUImTextureData@@@@QEAA@XZ
	??1?$ImVector@PEAUMyDocument@@@@QEAA@XZ
	??1?$ImVector@PEBD@@QEAA@XZ
	??1?$ImVector@UExampleAsset@@@@QEAA@XZ
	??1?$ImVector@UImDrawChannel@@@@QEAA@XZ
	??1?$ImVector@UImDrawCmd@@@@QEAA@XZ
	??1?$ImVector@UImDrawVert@@@@QEAA@XZ
	??1?$ImVector@UImFontAtlasRectEntry@@@@QEAA@XZ
	??1?$ImVector@UImFontConfig@@@@QEAA@XZ
	??1?$ImVector@UImFontGlyph@@@@QEAA@XZ
	??1?$ImVector@UImFontStackData@@@@QEAA@XZ
	??1?$ImVector@UImGuiColorMod@@@@QEAA@XZ
	??1?$ImVector@UImGuiContextHook@@@@QEAA@XZ
	??1?$ImVector@UImGuiFocusScopeData@@@@QEAA@XZ
	??1?$ImVector@UImGuiGroupData@@@@QEAA@XZ
	??1?$ImVector@UImGuiInputEvent@@@@QEAA@XZ
	??1?$ImVector@UImGuiKeyRoutingData@@@@QEAA@XZ
	??1?$ImVector@UImGuiListClipperData@@@@QEAA@XZ
	??1?$ImVector@UImGuiListClipperRange@@@@QEAA@XZ
	??1?$ImVector@UImGuiMultiSelectState@@@@QEAA@XZ
	??1?$ImVector@UImGuiMultiSelectTempData@@@@QEAA@XZ
	??1?$ImVector@UImGuiOldColumnData@@@@QEAA@XZ
	??1?$ImVector@UImGuiOldColumns@@@@QEAA@XZ
	??1?$ImVector@UImGuiPopupData@@@@QEAA@XZ
	??1?$ImVector@UImGuiPtrOrIndex@@@@QEAA@XZ
	??1?$ImVector@UImGuiSelectionRequest@@@@QEAA@XZ
	??1?$ImVector@UImGuiSettingsHandler@@@@QEAA@XZ
	??1?$ImVector@UImGuiShrinkWidthItem@@@@QEAA@XZ
	??1?$ImVector@UImGuiStackLevelInfo@@@@QEAA@XZ
	??1?$ImVector@UImGuiStoragePair@@@@QEAA@XZ
	??1?$ImVector@UImGuiStyleMod@@@@QEAA@XZ
	??1?$ImVector@UImGuiTabBar@@@@QEAA@XZ
	??1?$ImVector@UImGuiTabItem@@@@QEAA@XZ
	??1?$ImVector@UImGuiTable@@@@QEAA@XZ
	??1?$ImVector@UImGuiTableColumnSortSpecs@@@@QEAA@XZ
	??1?$ImVector@UImGuiTableHeaderData@@@@QEAA@XZ
	??1?$ImVector@UImGuiTableInstanceData@@@@QEAA@XZ
	??1?$ImVector@UImGuiTableTempData@@@@QEAA@XZ
	??1?$ImVector@UImGuiTextRange@ImGuiTextFilter@@@@QEAA@XZ
	??1?$ImVector@UImGuiTreeNodeStackData@@@@QEAA@XZ
	??1?$ImVector@UImGuiWindowStackData@@@@QEAA@XZ
	??1?$ImVector@UImTextureRect@@@@QEAA@XZ
	??1?$ImVector@UImTextureRef@@@@QEAA@XZ
	??1?$ImVector@UImVec2@@@@QEAA@XZ
	??1?$ImVector@UImVec4@@@@QEAA@XZ
	??1?$ImVector@UMyDocument@@@@QEAA@XZ
	??1?$ImVector@Ustbrp_node@@@@QEAA@XZ
	??1?$ImVector@_W@@QEAA@XZ
	??1ExampleAppConsole@@QEAA@XZ
	??1ExampleAppDocuments@@QEAA@XZ
	??1ExampleAppLog@@QEAA@XZ
	??1ExampleAppPropertyEditor@@QEAA@XZ
	??1ExampleAssetsBrowser@@QEAA@XZ
	??1ExampleDualListBox@@QEAA@XZ
	??1ExampleSelectionWithDeletion@@QEAA@XZ
	??1ExampleTreeNode@@QEAA@XZ
	??1ImDrawData@@QEAA@XZ
	??1ImDrawDataBuilder@@QEAA@XZ
	??1ImDrawList@@QEAA@XZ
	??1ImDrawListSharedData@@QEAA@XZ
	??1ImDrawListSplitter@@QEAA@XZ
	??1ImFont@@QEAA@XZ
	??1ImFontAtlas@@QEAA@XZ
	??1ImFontAtlasBuilder@@QEAA@XZ
	??1ImFontBaked@@QEAA@XZ
	??1ImGuiContext@@QEAA@XZ
	??1ImGuiDemoWindowData@@QEAA@XZ
	??1ImGuiIDStackTool@@QEAA@XZ
	??1ImGuiIO@@QEAA@XZ
	??1ImGuiInputTextDeactivatedState@@QEAA@XZ
	??1ImGuiInputTextState@@QEAA@XZ
	??1ImGuiKeyRoutingTable@@QEAA@XZ
	??1ImGuiListClipper@@QEAA@XZ
	??1ImGuiListClipperData@@QEAA@XZ
	??1ImGuiMultiSelectIO@@QEAA@XZ
	??1ImGuiMultiSelectTempData@@QEAA@XZ
	??1ImGuiOldColumns@@QEAA@XZ
	??1ImGuiPlatformIO@@QEAA@XZ
	??1ImGuiSelectionBasicStorage@@QEAA@XZ
	??1ImGuiStorage@@QEAA@XZ
	??1ImGuiTabBar@@QEAA@XZ
	??1ImGuiTable@@QEAA@XZ
	??1ImGuiTableTempData@@QEAA@XZ
	??1ImGuiTextBuffer@@QEAA@XZ
	??1ImGuiTextFilter@@QEAA@XZ
	??1ImGuiTextIndex@@QEAA@XZ
	??1ImGuiViewportP@@QEAA@XZ
	??1ImGuiWindow@@QEAA@XZ
	??1ImGuiWindowTempData@@QEAA@XZ
	??1ImTextureData@@QEAA@XZ
	??1bad_alloc@std@@UEAA@XZ
	??1bad_array_new_length@std@@UEAA@XZ
	??1exception@std@@UEAA@XZ
	??2@YAPEAX_KPEAX@Z
	??2@YAPEAX_KUImNewWrapper@@PEAX@Z
	??3@YAXPEAXUImNewWrapper@@0@Z
	??4?$ImVector@G@@QEAAAEAU0@AEBU0@@Z
	??4?$ImVector@UImDrawCmd@@@@QEAAAEAU0@AEBU0@@Z
	??4?$ImVector@UImDrawVert@@@@QEAAAEAU0@AEBU0@@Z
	??4?$ImVector@UImFontAtlasRectEntry@@@@QEAAAEAU0@AEBU0@@Z
	??8@YA_NAEBUImTextureRef@@0@Z
	??9@YA_NAEBUImTextureRef@@0@Z
	??A?$ImSpan@F@@QEAAAEAFH@Z
	??A?$ImSpan@UImGuiTableCellData@@@@QEAAAEAUImGuiTableCellData@@H@Z
	??A?$ImSpan@UImGuiTableColumn@@@@QEAAAEAUImGuiTableColumn@@H@Z
	??A?$ImSpan@UImGuiTableColumn@@@@QEBAAEBUImGuiTableColumn@@H@Z
	??A?$ImStableVector@UImFontBaked@@$0CA@@@QEAAAEAUImFontBaked@@H@Z
	??A?$ImVector@D@@QEAAAEADH@Z
	??A?$ImVector@D@@QEBAAEBDH@Z
	??A?$ImVector@G@@QEAAAEAGH@Z
	??A?$ImVector@H@@QEAAAEAHH@Z
	??A?$ImVector@I@@QEAAAEAIH@Z
	??A?$ImVector@I@@QEBAAEBIH@Z
	??A?$ImVector@M@@QEAAAEAMH@Z
	??A?$ImVector@PEAD@@QEAAAEAPEADH@Z
	??A?$ImVector@PEAUExampleTreeNode@@@@QEAAAEAPEAUExampleTreeNode@@H@Z
	??A?$ImVector@PEAUImDrawList@@@@QEAAAEAPEAUImDrawList@@H@Z
	??A?$ImVector@PEAUImFont@@@@QEAAAEAPEAUImFont@@H@Z
	??A?$ImVector@PEAUImFontBaked@@@@QEAAAEAPEAUImFontBaked@@H@Z
	??A?$ImVector@PEAUImFontConfig@@@@QEAAAEAPEAUImFontConfig@@H@Z
	??A?$ImVector@PEAUImFontConfig@@@@QEBAAEBQEAUImFontConfig@@H@Z
	??A?$ImVector@PEAUImGuiViewportP@@@@QEAAAEAPEAUImGuiViewportP@@H@Z
	??A?$ImVector@PEAUImGuiWindow@@@@QEAAAEAPEAUImGuiWindow@@H@Z
	??A?$ImVector@PEAUImTextureData@@@@QEAAAEAPEAUImTextureData@@H@Z
	??A?$ImVector@PEAUMyDocument@@@@QEAAAEAPEAUMyDocument@@H@Z
	??A?$ImVector@PEBD@@QEAAAEAPEBDH@Z
	??A?$ImVector@UExampleAsset@@@@QEAAAEAUExampleAsset@@H@Z
	??A?$ImVector@UImDrawChannel@@@@QEAAAEAUImDrawChannel@@H@Z
	??A?$ImVector@UImDrawCmd@@@@QEAAAEAUImDrawCmd@@H@Z
	??A?$ImVector@UImDrawCmd@@@@QEBAAEBUImDrawCmd@@H@Z
	??A?$ImVector@UImDrawVert@@@@QEAAAEAUImDrawVert@@H@Z
	??A?$ImVector@UImFontAtlasRectEntry@@@@QEAAAEAUImFontAtlasRectEntry@@H@Z
	??A?$ImVector@UImFontConfig@@@@QEAAAEAUImFontConfig@@H@Z
	??A?$ImVector@UImFontGlyph@@@@QEAAAEAUImFontGlyph@@H@Z
	??A?$ImVector@UImGuiContextHook@@@@QEAAAEAUImGuiContextHook@@H@Z
	??A?$ImVector@UImGuiFocusScopeData@@@@QEAAAEAUImGuiFocusScopeData@@H@Z
	??A?$ImVector@UImGuiInputEvent@@@@QEAAAEAUImGuiInputEvent@@H@Z
	??A?$ImVector@UImGuiKeyRoutingData@@@@QEAAAEAUImGuiKeyRoutingData@@H@Z
	??A?$ImVector@UImGuiListClipperData@@@@QEAAAEAUImGuiListClipperData@@H@Z
	??A?$ImVector@UImGuiListClipperRange@@@@QEAAAEAUImGuiListClipperRange@@H@Z
	??A?$ImVector@UImGuiMultiSelectState@@@@QEAAAEAUImGuiMultiSelectState@@H@Z
	??A?$ImVector@UImGuiMultiSelectTempData@@@@QEAAAEAUImGuiMultiSelectTempData@@H@Z
	??A?$ImVector@UImGuiOldColumnData@@@@QEAAAEAUImGuiOldColumnData@@H@Z
	??A?$ImVector@UImGuiOldColumns@@@@QEAAAEAUImGuiOldColumns@@H@Z
	??A?$ImVector@UImGuiPopupData@@@@QEAAAEAUImGuiPopupData@@H@Z
	??A?$ImVector@UImGuiShrinkWidthItem@@@@QEAAAEAUImGuiShrinkWidthItem@@H@Z
	??A?$ImVector@UImGuiStackLevelInfo@@@@QEAAAEAUImGuiStackLevelInfo@@H@Z
	??A?$ImVector@UImGuiStoragePair@@@@QEAAAEAUImGuiStoragePair@@H@Z
	??A?$ImVector@UImGuiTabBar@@@@QEAAAEAUImGuiTabBar@@H@Z
	??A?$ImVector@UImGuiTabItem@@@@QEAAAEAUImGuiTabItem@@H@Z
	??A?$ImVector@UImGuiTable@@@@QEAAAEAUImGuiTable@@H@Z
	??A?$ImVector@UImGuiTableInstanceData@@@@QEAAAEAUImGuiTableInstanceData@@H@Z
	??A?$ImVector@UImGuiTableTempData@@@@QEAAAEAUImGuiTableTempData@@H@Z
	??A?$ImVector@UImGuiWindowStackData@@@@QEAAAEAUImGuiWindowStackData@@H@Z
	??A?$ImVector@UImTextureRect@@@@QEAAAEAUImTextureRect@@H@Z
	??A?$ImVector@UImVec2@@@@QEAAAEAUImVec2@@H@Z
	??A?$ImVector@UMyDocument@@@@QEAAAEAUMyDocument@@H@Z
	??AImGuiTextBuffer@@QEBADH@Z
	??AImVec2@@QEAAAEAM_K@Z
	??AImVec2@@QEBAM_K@Z
	??B<lambda_254ec43acd642adb2a6ba40c6026f04c>@@QEBAP6AIPEAUImGuiSelectionBasicStorage@@H@ZXZ
	??B<lambda_a9a5070e6bdfdae05b31fc6916a3c4d1>@@QEBAP6AIPEAUImGuiSelectionBasicStorage@@H@ZXZ
	??BImColor@@QEBA?AUImVec4@@XZ
	??BImColor@@QEBAIXZ
	??D@YA?AUImVec2@@AEBU0@0@Z
	??D@YA?AUImVec2@@AEBU0@M@Z
	??G@YA?AUImVec2@@AEBU0@0@Z
	??H@YA?AUImVec2@@AEBU0@0@Z
	??K@YA?AUImVec2@@AEBU0@0@Z
	??K@YA?AUImVec2@@AEBU0@M@Z
	??R<lambda_254ec43acd642adb2a6ba40c6026f04c>@@QEBA@PEAUImGuiSelectionBasicStorage@@H@Z
	??R<lambda_a9a5070e6bdfdae05b31fc6916a3c4d1>@@QEBA@PEAUImGuiSelectionBasicStorage@@H@Z
	??R<lambda_e1befb086ad3257e3f042a63030725f7>@@QEBA@QEADQEBD_K2D@Z
	??Y@YAAEAUImVec2@@AEAU0@AEBU0@@Z
	??Z@YAAEAUImVec2@@AEAU0@AEBU0@@Z
	??_7bad_alloc@std@@6B@
	??_7bad_array_new_length@std@@6B@
	??_7exception@std@@6B@
	??_H@YAXPEAX_K1P6APEAX0@Z@Z
	?AcceptDragDropPayload@ImGui@@YAPEBUImGuiPayload@@PEBDH@Z
	?ActivateItemByID@ImGui@@YAXI@Z
	?Add@?$ImPool@UImGuiMultiSelectState@@@@QEAAPEAUImGuiMultiSelectState@@XZ
	?Add@?$ImPool@UImGuiTabBar@@@@QEAAPEAUImGuiTabBar@@XZ
	?Add@?$ImPool@UImGuiTable@@@@QEAAPEAUImGuiTable@@XZ
	?Add@ImRect@@QEAAXAEBU1@@Z
	?Add@ImRect@@QEAAXAEBUImVec2@@@Z
	?AddBezierCubic@ImDrawList@@QEAAXAEBUImVec2@@000IMH@Z
	?AddBezierQuadratic@ImDrawList@@QEAAXAEBUImVec2@@00IMH@Z
	?AddCallback@ImDrawList@@QEAAXP6AXPEBU1@PEBUImDrawCmd@@@ZPEAX_K@Z
	?AddChar@ImFontGlyphRangesBuilder@@QEAAXG@Z
	?AddCircle@ImDrawList@@QEAAXAEBUImVec2@@MIHM@Z
	?AddCircleFilled@ImDrawList@@QEAAXAEBUImVec2@@MIH@Z
	?AddConcavePolyFilled@ImDrawList@@QEAAXPEBUImVec2@@HI@Z
	?AddContextHook@ImGui@@YAIPEAUImGuiContext@@PEBUImGuiContextHook@@@Z
	?AddConvexPolyFilled@ImDrawList@@QEAAXPEBUImVec2@@HI@Z
	?AddCustomRect@ImFontAtlas@@QEAAHHHPEAUImFontAtlasRect@@@Z
	?AddDrawCmd@ImDrawList@@QEAAXXZ
	?AddDrawList@ImDrawData@@QEAAXPEAUImDrawList@@@Z
	?AddDrawListToDrawDataEx@ImGui@@YAXPEAUImDrawData@@PEAU?$ImVector@PEAUImDrawList@@@@PEAUImDrawList@@@Z
	?AddEllipse@ImDrawList@@QEAAXAEBUImVec2@@0IMHM@Z
	?AddEllipseFilled@ImDrawList@@QEAAXAEBUImVec2@@0IMH@Z
	?AddFocusEvent@ImGuiIO@@QEAAX_N@Z
	?AddFont@ImFontAtlas@@QEAAPEAUImFont@@PEBUImFontConfig@@@Z
	?AddFontDefault@ImFontAtlas@@QEAAPEAUImFont@@PEBUImFontConfig@@@Z
	?AddFontFromFileTTF@ImFontAtlas@@QEAAPEAUImFont@@PEBDMPEBUImFontConfig@@PEBG@Z
	?AddFontFromMemoryCompressedBase85TTF@ImFontAtlas@@QEAAPEAUImFont@@PEBDMPEBUImFontConfig@@PEBG@Z
	?AddFontFromMemoryCompressedTTF@ImFontAtlas@@QEAAPEAUImFont@@PEBXHMPEBUImFontConfig@@PEBG@Z
	?AddFontFromMemoryTTF@ImFontAtlas@@QEAAPEAUImFont@@PEAXHMPEBUImFontConfig@@PEBG@Z
	?AddImage@ImDrawList@@QEAAXUImTextureRef@@AEBUImVec2@@111I@Z
	?AddImageQuad@ImDrawList@@QEAAXUImTextureRef@@AEBUImVec2@@1111111I@Z
	?AddImageRounded@ImDrawList@@QEAAXUImTextureRef@@AEBUImVec2@@111IMH@Z
	?AddInputCharacter@ImGuiIO@@QEAAXI@Z
	?AddInputCharacterUTF16@ImGuiIO@@QEAAXG@Z
	?AddInputCharactersUTF8@ImGuiIO@@QEAAXPEBD@Z
	?AddItems@ExampleAssetsBrowser@@QEAAXH@Z
	?AddKeyAnalogEvent@ImGuiIO@@QEAAXW4ImGuiKey@@_NM@Z
	?AddKeyEvent@ImGuiIO@@QEAAXW4ImGuiKey@@_N@Z
	?AddLine@ImDrawList@@QEAAXAEBUImVec2@@0IM@Z
	?AddLog@ExampleAppConsole@@QEAAXPEBDZZ
	?AddLog@ExampleAppLog@@QEAAXPEBDZZ
	?AddMouseButtonEvent@ImGuiIO@@QEAAXH_N@Z
	?AddMousePosEvent@ImGuiIO@@QEAAXMM@Z
	?AddMouseSourceEvent@ImGuiIO@@QEAAXW4ImGuiMouseSource@@@Z
	?AddMouseWheelEvent@ImGuiIO@@QEAAXMM@Z
	?AddNgon@ImDrawList@@QEAAXAEBUImVec2@@MIHM@Z
	?AddNgonFilled@ImDrawList@@QEAAXAEBUImVec2@@MIH@Z
	?AddPolyline@ImDrawList@@QEAAXPEBUImVec2@@HIHM@Z
	?AddQuad@ImDrawList@@QEAAXAEBUImVec2@@000IM@Z
	?AddQuadFilled@ImDrawList@@QEAAXAEBUImVec2@@000I@Z
	?AddRanges@ImFontGlyphRangesBuilder@@QEAAXPEBG@Z
	?AddRect@ImDrawList@@QEAAXAEBUImVec2@@0IMHM@Z
	?AddRectFilled@ImDrawList@@QEAAXAEBUImVec2@@0IMH@Z
	?AddRectFilledMultiColor@ImDrawList@@QEAAXAEBUImVec2@@0IIII@Z
	?AddRemapChar@ImFont@@QEAAXGG@Z
	?AddSettingsHandler@ImGui@@YAXPEBUImGuiSettingsHandler@@@Z
	?AddText@ImDrawList@@QEAAXAEBUImVec2@@IPEBD1@Z
	?AddText@ImDrawList@@QEAAXPEAUImFont@@MAEBUImVec2@@IPEBD2MPEBUImVec4@@@Z
	?AddText@ImFontGlyphRangesBuilder@@QEAAXPEBD0@Z
	?AddTriangle@ImDrawList@@QEAAXAEBUImVec2@@00IM@Z
	?AddTriangleFilled@ImDrawList@@QEAAXAEBUImVec2@@00I@Z
	?AlignTextToFramePadding@ImGui@@YAXXZ
	?AllocateBuffer@@YAPEAXPEAX@Z
	?ApplyDeletionPreLoop@ExampleSelectionWithDeletion@@QEAAHPEAUImGuiMultiSelectIO@@H@Z
	?ApplyRequests@ImGuiSelectionBasicStorage@@QEAAXPEAUImGuiMultiSelectIO@@@Z
	?ApplyRequests@ImGuiSelectionExternalStorage@@QEAAXPEAUImGuiMultiSelectIO@@@Z
	?ApplySelectionRequests@ExampleDualListBox@@QEAAXPEAUImGuiMultiSelectIO@@H@Z
	?ArrowButton@ImGui@@YA_NPEBDW4ImGuiDir@@@Z
	?ArrowButtonEx@ImGui@@YA_NPEBDW4ImGuiDir@@UImVec2@@H@Z
	?Begin@ImGui@@YA_NPEBDPEA_NH@Z
	?Begin@ImGuiListClipper@@QEAAXHM@Z
	?BeginBoxSelect@ImGui@@YA_NAEBUImRect@@PEAUImGuiWindow@@IH@Z
	?BeginChild@ImGui@@YA_NIAEBUImVec2@@HH@Z
	?BeginChild@ImGui@@YA_NPEBDAEBUImVec2@@HH@Z
	?BeginChildEx@ImGui@@YA_NPEBDIAEBUImVec2@@HH@Z
	?BeginColumns@ImGui@@YAXPEBDHH@Z
	?BeginCombo@ImGui@@YA_NPEBD0H@Z
	?BeginComboPopup@ImGui@@YA_NIAEBUImRect@@H@Z
	?BeginComboPreview@ImGui@@YA_NXZ
	?BeginDisabled@ImGui@@YAX_N@Z
	?BeginDisabledOverrideReenable@ImGui@@YAXXZ
	?BeginDragDropSource@ImGui@@YA_NH@Z
	?BeginDragDropTarget@ImGui@@YA_NXZ
	?BeginDragDropTargetCustom@ImGui@@YA_NAEBUImRect@@I@Z
	?BeginErrorTooltip@ImGui@@YA_NXZ
	?BeginGroup@ImGui@@YAXXZ
	?BeginItemTooltip@ImGui@@YA_NXZ
	?BeginListBox@ImGui@@YA_NPEBDAEBUImVec2@@@Z
	?BeginMainMenuBar@ImGui@@YA_NXZ
	?BeginMenu@ImGui@@YA_NPEBD_N@Z
	?BeginMenuBar@ImGui@@YA_NXZ
	?BeginMenuEx@ImGui@@YA_NPEBD0_N@Z
	?BeginMultiSelect@ImGui@@YAPEAUImGuiMultiSelectIO@@HHH@Z
	?BeginPopup@ImGui@@YA_NPEBDH@Z
	?BeginPopupContextItem@ImGui@@YA_NPEBDH@Z
	?BeginPopupContextVoid@ImGui@@YA_NPEBDH@Z
	?BeginPopupContextWindow@ImGui@@YA_NPEBDH@Z
	?BeginPopupEx@ImGui@@YA_NIH@Z
	?BeginPopupMenuEx@ImGui@@YA_NIPEBDH@Z
	?BeginPopupModal@ImGui@@YA_NPEBDPEA_NH@Z
	?BeginTabBar@ImGui@@YA_NPEBDH@Z
	?BeginTabBarEx@ImGui@@YA_NPEAUImGuiTabBar@@AEBUImRect@@H@Z
	?BeginTabItem@ImGui@@YA_NPEBDPEA_NH@Z
	?BeginTable@ImGui@@YA_NPEBDHHAEBUImVec2@@M@Z
	?BeginTableEx@ImGui@@YA_NPEBDIHHAEBUImVec2@@M@Z
	?BeginTooltip@ImGui@@YA_NXZ
	?BeginTooltipEx@ImGui@@YA_NHH@Z
	?BeginTooltipHidden@ImGui@@YA_NXZ
	?BeginViewportSideBar@ImGui@@YA_NPEBDPEAUImGuiViewport@@W4ImGuiDir@@MH@Z
	?BringWindowToDisplayBack@ImGui@@YAXPEAUImGuiWindow@@@Z
	?BringWindowToDisplayBehind@ImGui@@YAXPEAUImGuiWindow@@0@Z
	?BringWindowToDisplayFront@ImGui@@YAXPEAUImGuiWindow@@@Z
	?BringWindowToFocusFront@ImGui@@YAXPEAUImGuiWindow@@@Z
	?Build@ImGuiTextFilter@@QEAAXXZ
	?BuildEars@ImTriangulator@@QEAAXXZ
	?BuildNodes@ImTriangulator@@QEAAXPEBUImVec2@@H@Z
	?BuildRanges@ImFontGlyphRangesBuilder@@QEAAXPEAU?$ImVector@G@@@Z
	?BuildReflexes@ImTriangulator@@QEAAXXZ
	?BuildSortByKey@ImGuiStorage@@QEAAXXZ
	?Bullet@ImGui@@YAXXZ
	?BulletText@ImGui@@YAXPEBDZZ
	?BulletTextV@ImGui@@YAXPEBDPEAD@Z
	?Button@ImGui@@YA_NPEBDAEBUImVec2@@@Z
	?ButtonBehavior@ImGui@@YA_NAEBUImRect@@IPEA_N1H@Z
	?ButtonEx@ImGui@@YA_NPEBDAEBUImVec2@@H@Z
	?CalcItemSize@ImGui@@YA?AUImVec2@@U2@MM@Z
	?CalcItemWidth@ImGui@@YAMXZ
	?CalcNextTotalWidth@ImGuiMenuColumns@@QEAAX_N@Z
	?CalcTextSize@ImGui@@YA?AUImVec2@@PEBD0_NM@Z
	?CalcTextSizeA@ImFont@@QEAA?AUImVec2@@MMMPEBD0PEAPEBD@Z
	?CalcTypematicRepeatAmount@ImGui@@YAHMMMM@Z
	?CalcWindowNextAutoFitSize@ImGui@@YA?AUImVec2@@PEAUImGuiWindow@@@Z
	?CalcWordWrapPosition@ImFont@@QEAAPEBDMPEBD0M@Z
	?CalcWorkRectPos@ImGuiViewportP@@QEBA?AUImVec2@@AEBU2@@Z
	?CalcWorkRectSize@ImGuiViewportP@@QEBA?AUImVec2@@AEBU2@0@Z
	?CalcWrapWidthForPos@ImGui@@YAMAEBUImVec2@@M@Z
	?CallContextHooks@ImGui@@YAXPEAUImGuiContext@@W4ImGuiContextHookType@@@Z
	?ChannelsMerge@ImDrawList@@QEAAXXZ
	?ChannelsSetCurrent@ImDrawList@@QEAAXH@Z
	?ChannelsSplit@ImDrawList@@QEAAXH@Z
	?Checkbox@ImGui@@YA_NPEBDPEA_N@Z
	?CheckboxFlags@ImGui@@YA_NPEBDPEAHH@Z
	?CheckboxFlags@ImGui@@YA_NPEBDPEAII@Z
	?CheckboxFlags@ImGui@@YA_NPEBDPEA_J_J@Z
	?CheckboxFlags@ImGui@@YA_NPEBDPEA_K_K@Z
	?Clear@?$ImPool@UImGuiMultiSelectState@@@@QEAAXXZ
	?Clear@?$ImPool@UImGuiTabBar@@@@QEAAXXZ
	?Clear@?$ImPool@UImGuiTable@@@@QEAAXXZ
	?Clear@ExampleAppLog@@QEAAXXZ
	?Clear@ImDrawData@@QEAAXXZ
	?Clear@ImDrawListSplitter@@QEAAXXZ
	?Clear@ImFontAtlas@@QEAAXXZ
	?Clear@ImGuiKeyRoutingTable@@QEAAXXZ
	?Clear@ImGuiMultiSelectTempData@@QEAAXXZ
	?Clear@ImGuiNavItemData@@QEAAXXZ
	?Clear@ImGuiPayload@@QEAAXXZ
	?Clear@ImGuiSelectionBasicStorage@@QEAAXXZ
	?Clear@ImGuiStorage@@QEAAXXZ
	?Clear@ImGuiTextFilter@@QEAAXXZ
	?Clear@ImGuiTypingSelectState@@QEAAXXZ
	?ClearActiveID@ImGui@@YAXXZ
	?ClearAllBits@?$ImBitArray@$0JL@$0?CAA@@@QEAAXXZ
	?ClearAllBits@?$ImBitArray@$0JL@$0A@@@QEAAXXZ
	?ClearDragDrop@ImGui@@YAXXZ
	?ClearEventsQueue@ImGuiIO@@QEAAXXZ
	?ClearFlags@ImGuiNextItemData@@QEAAXXZ
	?ClearFlags@ImGuiNextWindowData@@QEAAXXZ
	?ClearFonts@ImFontAtlas@@QEAAXXZ
	?ClearFreeMemory@ImDrawListSplitter@@QEAAXXZ
	?ClearFreeMemory@ImGuiInputTextDeactivatedState@@QEAAXXZ
	?ClearFreeMemory@ImGuiInputTextState@@QEAAXXZ
	?ClearIO@ImGuiMultiSelectTempData@@QEAAXXZ
	?ClearIniSettings@ImGui@@YAXXZ
	?ClearInputData@ImFontAtlas@@QEAAXXZ
	?ClearInputKeys@ImGuiIO@@QEAAXXZ
	?ClearInputMouse@ImGuiIO@@QEAAXXZ
	?ClearItems@ExampleAssetsBrowser@@QEAAXXZ
	?ClearLog@ExampleAppConsole@@QEAAXXZ
	?ClearOutputData@ImFont@@QEAAXXZ
	?ClearOutputData@ImFontBaked@@QEAAXXZ
	?ClearSelection@ImGuiInputTextState@@QEAAXXZ
	?ClearTexData@ImFontAtlas@@QEAAXXZ
	?ClearWindowSettings@ImGui@@YAXPEBD@Z
	?ClipWith@ImRect@@QEAAXAEBU1@@Z
	?ClipWithFull@ImRect@@QEAAXAEBU1@@Z
	?CloneOutput@ImDrawList@@QEBAPEAU1@XZ
	?CloseButton@ImGui@@YA_NIAEBUImVec2@@@Z
	?CloseCurrentPopup@ImGui@@YAXXZ
	?ClosePopupToLevel@ImGui@@YAXH_N@Z
	?ClosePopupsExceptModals@ImGui@@YAXXZ
	?ClosePopupsOverWindow@ImGui@@YAXPEAUImGuiWindow@@_N@Z
	?CollapseButton@ImGui@@YA_NIAEBUImVec2@@@Z
	?CollapsingHeader@ImGui@@YA_NPEBDH@Z
	?CollapsingHeader@ImGui@@YA_NPEBDPEA_NH@Z
	?ColorButton@ImGui@@YA_NPEBDAEBUImVec4@@HAEBUImVec2@@@Z
	?ColorConvertFloat4ToU32@ImGui@@YAIAEBUImVec4@@@Z
	?ColorConvertHSVtoRGB@ImGui@@YAXMMMAEAM00@Z
	?ColorConvertRGBtoHSV@ImGui@@YAXMMMAEAM00@Z
	?ColorConvertU32ToFloat4@ImGui@@YA?AUImVec4@@I@Z
	?ColorEdit3@ImGui@@YA_NPEBDQEAMH@Z
	?ColorEdit4@ImGui@@YA_NPEBDQEAMH@Z
	?ColorEditOptionsPopup@ImGui@@YAXPEBMH@Z
	?ColorPicker3@ImGui@@YA_NPEBDQEAMH@Z
	?ColorPicker4@ImGui@@YA_NPEBDQEAMHPEBM@Z
	?ColorPickerOptionsPopup@ImGui@@YAXPEBMH@Z
	?ColorTooltip@ImGui@@YAXPEBDPEBMH@Z
	?Columns@ImGui@@YAXHPEBD_N@Z
	?Combo@ImGui@@YA_NPEBDPEAH0H@Z
	?Combo@ImGui@@YA_NPEBDPEAHP6APEBDPEAXH@Z2HH@Z
	?Combo@ImGui@@YA_NPEBDPEAHQEBQEBDHH@Z
	?CompactCache@ImFontAtlas@@QEAAXXZ
	?CompareItemsByValue@ExampleDualListBox@@SAHPEBX0@Z
	?CompareWithSortSpecs@ExampleAsset@@SAHPEBX0@Z
	?Contains@?$ImPool@UImGuiTabBar@@@@QEBA_NPEBUImGuiTabBar@@@Z
	?Contains@ImGuiSelectionBasicStorage@@QEBA_NI@Z
	?Contains@ImRect@@QEBA_NAEBU1@@Z
	?Contains@ImRect@@QEBA_NAEBUImVec2@@@Z
	?ContainsWithPad@ImRect@@QEBA_NAEBUImVec2@@0@Z
	?ConvertSingleModFlagToKey@ImGui@@YA?AW4ImGuiKey@@W42@@Z
	?Create@ImTextureData@@QEAAXW4ImTextureFormat@@HH@Z
	?CreateContext@ImGui@@YAPEAUImGuiContext@@PEAUImFontAtlas@@@Z
	?CreateNewWindowSettings@ImGui@@YAPEAUImGuiWindowSettings@@PEBD@Z
	?CreateTrampolineFunction@@YAHPEAU_TRAMPOLINE@@@Z
	?CursorAnimReset@ImGuiInputTextState@@QEAAXXZ
	?CursorClamp@ImGuiInputTextState@@QEAAXXZ
	?DataTypeApplyFromText@ImGui@@YA_NPEBDHPEAX01@Z
	?DataTypeApplyOp@ImGui@@YAXHHPEAXPEBX1@Z
	?DataTypeClamp@ImGui@@YA_NHPEAXPEBX1@Z
	?DataTypeCompare@ImGui@@YAHHPEBX0@Z
	?DataTypeFormatString@ImGui@@YAHPEADHHPEBXPEBD@Z
	?DataTypeGetInfo@ImGui@@YAPEBUImGuiDataTypeInfo@@H@Z
	?DataTypeIsZero@ImGui@@YA_NHPEBX@Z
	?DeIndexAllBuffers@ImDrawData@@QEAAXXZ
	?DebugAllocHook@ImGui@@YAXPEAUImGuiDebugAllocInfo@@HPEAX_K@Z
	?DebugBreakButton@ImGui@@YA_NPEBD0@Z
	?DebugBreakButtonTooltip@ImGui@@YAX_NPEBD@Z
	?DebugBreakClearData@ImGui@@YAXXZ
	?DebugCheckVersionAndDataLayout@ImGui@@YA_NPEBD_K11111@Z
	?DebugDrawCursorPos@ImGui@@YAXI@Z
	?DebugDrawItemRect@ImGui@@YAXI@Z
	?DebugDrawLineExtents@ImGui@@YAXI@Z
	?DebugFlashStyleColor@ImGui@@YAXH@Z
	?DebugHookIdInfo@ImGui@@YAXIHPEBX0@Z
	?DebugLocateItem@ImGui@@YAXI@Z
	?DebugLocateItemOnHover@ImGui@@YAXI@Z
	?DebugLocateItemResolveWithLastItem@ImGui@@YAXXZ
	?DebugLog@ImGui@@YAXPEBDZZ
	?DebugLogV@ImGui@@YAXPEBDPEAD@Z
	?DebugNodeColumns@ImGui@@YAXPEAUImGuiOldColumns@@@Z
	?DebugNodeDrawCmdShowMeshAndBoundingBox@ImGui@@YAXPEAUImDrawList@@PEBU2@PEBUImDrawCmd@@_N3@Z
	?DebugNodeDrawList@ImGui@@YAXPEAUImGuiWindow@@PEAUImGuiViewportP@@PEBUImDrawList@@PEBD@Z
	?DebugNodeFont@ImGui@@YAXPEAUImFont@@@Z
	?DebugNodeFontGlyph@ImGui@@YAXPEAUImFont@@PEBUImFontGlyph@@@Z
	?DebugNodeFontGlyphesForSrcMask@ImGui@@YAXPEAUImFont@@PEAUImFontBaked@@H@Z
	?DebugNodeInputTextState@ImGui@@YAXPEAUImGuiInputTextState@@@Z
	?DebugNodeMultiSelectState@ImGui@@YAXPEAUImGuiMultiSelectState@@@Z
	?DebugNodeStorage@ImGui@@YAXPEAUImGuiStorage@@PEBD@Z
	?DebugNodeTabBar@ImGui@@YAXPEAUImGuiTabBar@@PEBD@Z
	?DebugNodeTable@ImGui@@YAXPEAUImGuiTable@@@Z
	?DebugNodeTableSettings@ImGui@@YAXPEAUImGuiTableSettings@@@Z
	?DebugNodeTexture@ImGui@@YAXPEAUImTextureData@@HPEBUImFontAtlasRect@@@Z
	?DebugNodeTypingSelectState@ImGui@@YAXPEAUImGuiTypingSelectState@@@Z
	?DebugNodeViewport@ImGui@@YAXPEAUImGuiViewportP@@@Z
	?DebugNodeWindow@ImGui@@YAXPEAUImGuiWindow@@PEBD@Z
	?DebugNodeWindowSettings@ImGui@@YAXPEAUImGuiWindowSettings@@@Z
	?DebugNodeWindowsList@ImGui@@YAXPEAU?$ImVector@PEAUImGuiWindow@@@@PEBD@Z
	?DebugNodeWindowsListByBeginStackParent@ImGui@@YAXPEAPEAUImGuiWindow@@HPEAU2@@Z
	?DebugRenderKeyboardPreview@ImGui@@YAXPEAUImDrawList@@@Z
	?DebugRenderViewportThumbnail@ImGui@@YAXPEAUImDrawList@@PEAUImGuiViewportP@@AEBUImRect@@@Z
	?DebugStartItemPicker@ImGui@@YAXXZ
	?DebugTextEncoding@ImGui@@YAXPEBD@Z
	?DebugTextUnformattedWithLocateItem@ImGui@@YAXPEBD0@Z
	?DeclColumns@ImGuiMenuColumns@@QEAAMMMMM@Z
	?DeleteChars@ImGuiInputTextCallbackData@@QEAAXHH@Z
	?DestroyContext@ImGui@@YAXPEAUImGuiContext@@@Z
	?DestroyPixels@ImTextureData@@QEAAXXZ
	?DisplayDocContents@ExampleAppDocuments@@QEAAXPEAUMyDocument@@@Z
	?DisplayDocContextMenu@ExampleAppDocuments@@QEAAXPEAUMyDocument@@@Z
	?DoForceClose@MyDocument@@QEAAXXZ
	?DoOpen@MyDocument@@QEAAXXZ
	?DoSave@MyDocument@@QEAAXXZ
	?DragBehavior@ImGui@@YA_NIHPEAXMPEBX1PEBDH@Z
	?DragFloat2@ImGui@@YA_NPEBDQEAMMMM0H@Z
	?DragFloat3@ImGui@@YA_NPEBDQEAMMMM0H@Z
	?DragFloat4@ImGui@@YA_NPEBDQEAMMMM0H@Z
	?DragFloat@ImGui@@YA_NPEBDPEAMMMM0H@Z
	?DragFloatRange2@ImGui@@YA_NPEBDPEAM1MMM00H@Z
	?DragInt2@ImGui@@YA_NPEBDQEAHMHH0H@Z
	?DragInt3@ImGui@@YA_NPEBDQEAHMHH0H@Z
	?DragInt4@ImGui@@YA_NPEBDQEAHMHH0H@Z
	?DragInt@ImGui@@YA_NPEBDPEAHMHH0H@Z
	?DragIntRange2@ImGui@@YA_NPEBDPEAH1MHH00H@Z
	?DragScalar@ImGui@@YA_NPEBDHPEAXMPEBX20H@Z
	?DragScalarN@ImGui@@YA_NPEBDHPEAXHMPEBX20H@Z
	?Draw@ExampleAppConsole@@QEAAXPEBDPEA_N@Z
	?Draw@ExampleAppLog@@QEAAXPEBDPEA_N@Z
	?Draw@ExampleAppPropertyEditor@@QEAAXPEAUExampleTreeNode@@@Z
	?Draw@ExampleAssetsBrowser@@QEAAXPEBDPEA_N@Z
	?Draw@ImGuiTextFilter@@QEAA_NPEBDM@Z
	?DrawTreeNode@ExampleAppPropertyEditor@@QEAAXPEAUExampleTreeNode@@@Z
	?Dummy@ImGui@@YAXAEBUImVec2@@@Z
	?End@ImGui@@YAXXZ
	?End@ImGuiListClipper@@QEAAXXZ
	?EndBoxSelect@ImGui@@YAXAEBUImRect@@H@Z
	?EndChild@ImGui@@YAXXZ
	?EndColumns@ImGui@@YAXXZ
	?EndCombo@ImGui@@YAXXZ
	?EndComboPreview@ImGui@@YAXXZ
	?EndDisabled@ImGui@@YAXXZ
	?EndDisabledOverrideReenable@ImGui@@YAXXZ
	?EndDragDropSource@ImGui@@YAXXZ
	?EndDragDropTarget@ImGui@@YAXXZ
	?EndErrorTooltip@ImGui@@YAXXZ
	?EndFrame@ImGui@@YAXXZ
	?EndGroup@ImGui@@YAXXZ
	?EndListBox@ImGui@@YAXXZ
	?EndMainMenuBar@ImGui@@YAXXZ
	?EndMenu@ImGui@@YAXXZ
	?EndMenuBar@ImGui@@YAXXZ
	?EndMultiSelect@ImGui@@YAPEAUImGuiMultiSelectIO@@XZ
	?EndPopup@ImGui@@YAXXZ
	?EndTabBar@ImGui@@YAXXZ
	?EndTabItem@ImGui@@YAXXZ
	?EndTable@ImGui@@YAXXZ
	?EndTooltip@ImGui@@YAXXZ
	?ErrorCheckEndFrameFinalizeErrorTooltip@ImGui@@YAXXZ
	?ErrorCheckUsingSetCursorPosToExtendParentBoundaries@ImGui@@YAXXZ
	?ErrorLog@ImGui@@YA_NPEBD@Z
	?ErrorRecoveryStoreState@ImGui@@YAXPEAUImGuiErrorRecoveryState@@@Z
	?ErrorRecoveryTryToRecoverState@ImGui@@YAXPEBUImGuiErrorRecoveryState@@@Z
	?ErrorRecoveryTryToRecoverWindowState@ImGui@@YAXPEBUImGuiErrorRecoveryState@@@Z
	?EstimateScratchBufferSize@ImTriangulator@@SAHH@Z
	?EstimateTriangleCount@ImTriangulator@@SAHH@Z
	?ExecCommand@ExampleAppConsole@@QEAAXPEBD@Z
	?Expand@ImRect@@QEAAXAEBUImVec2@@@Z
	?Expand@ImRect@@QEAAXM@Z
	?FindBestWindowPosForPopup@ImGui@@YA?AUImVec2@@PEAUImGuiWindow@@@Z
	?FindBestWindowPosForPopupEx@ImGui@@YA?AUImVec2@@AEBU2@0PEAW4ImGuiDir@@AEBUImRect@@2W4ImGuiPopupPositionPolicy@@@Z
	?FindBlockingModal@ImGui@@YAPEAUImGuiWindow@@PEAU2@@Z
	?FindBottomMostVisibleWindowWithinBeginStack@ImGui@@YAPEAUImGuiWindow@@PEAU2@@Z
	?FindGlyph@ImFontBaked@@QEAAPEAUImFontGlyph@@G@Z
	?FindGlyphNoFallback@ImFontBaked@@QEAAPEAUImFontGlyph@@G@Z
	?FindHoveredWindowEx@ImGui@@YAXAEBUImVec2@@_NPEAPEAUImGuiWindow@@2@Z
	?FindOrCreateColumns@ImGui@@YAPEAUImGuiOldColumns@@PEAUImGuiWindow@@I@Z
	?FindRenderedTextEnd@ImGui@@YAPEBDPEBD0@Z
	?FindSettingsHandler@ImGui@@YAPEAUImGuiSettingsHandler@@PEBD@Z
	?FindWindowByID@ImGui@@YAPEAUImGuiWindow@@I@Z
	?FindWindowByName@ImGui@@YAPEAUImGuiWindow@@PEBD@Z
	?FindWindowDisplayIndex@ImGui@@YAHPEAUImGuiWindow@@@Z
	?FindWindowSettingsByID@ImGui@@YAPEAUImGuiWindowSettings@@I@Z
	?FindWindowSettingsByWindow@ImGui@@YAPEAUImGuiWindowSettings@@PEAUImGuiWindow@@@Z
	?FixupKeyChord@ImGui@@YAHH@Z
	?FlipNodeList@ImTriangulator@@QEAAXXZ
	?FocusItem@ImGui@@YAXXZ
	?FocusTopMostWindowUnderOne@ImGui@@YAXPEAUImGuiWindow@@0PEAUImGuiViewport@@H@Z
	?FocusWindow@ImGui@@YAXPEAUImGuiWindow@@H@Z
	?FreeBuffer@@YAXPEAX@Z
	?FromIndices@ImGuiListClipperRange@@SA?AU1@HH@Z
	?FromPositions@ImGuiListClipperRange@@SA?AU1@MMHH@Z
	?GcAwakeTransientWindowBuffers@ImGui@@YAXPEAUImGuiWindow@@@Z
	?GcCompactTransientMiscBuffers@ImGui@@YAXXZ
	?GcCompactTransientWindowBuffers@ImGui@@YAXPEAUImGuiWindow@@@Z
	?GetAliveCount@?$ImPool@UImGuiMultiSelectState@@@@QEBAHXZ
	?GetAliveCount@?$ImPool@UImGuiTabBar@@@@QEBAHXZ
	?GetAliveCount@?$ImPool@UImGuiTable@@@@QEBAHXZ
	?GetAllocatorFunctions@ImGui@@YAXPEAP6APEAX_KPEAX@ZPEAP6AX11@ZPEAPEAX@Z
	?GetArea@ImRect@@QEBAMXZ
	?GetArenaSizeInBytes@?$ImSpanAllocator@$05@@QEAAHXZ
	?GetBL@ImRect@@QEBA?AUImVec2@@XZ
	?GetBR@ImRect@@QEBA?AUImVec2@@XZ
	?GetBackgroundDrawList@ImGui@@YAPEAUImDrawList@@PEAUImGuiViewport@@@Z
	?GetBackgroundDrawList@ImGui@@YAPEAUImDrawList@@XZ
	?GetBit@ImFontGlyphRangesBuilder@@QEBA_N_K@Z
	?GetBool@ImGuiStorage@@QEBA_NI_N@Z
	?GetBoolRef@ImGuiStorage@@QEAAPEA_NI_N@Z
	?GetBoxSelectState@ImGui@@YAPEAUImGuiBoxSelectState@@I@Z
	?GetBuildWorkRect@ImGuiViewportP@@QEBA?AUImRect@@XZ
	?GetByIndex@?$ImPool@UImGuiMultiSelectState@@@@QEAAPEAUImGuiMultiSelectState@@H@Z
	?GetByIndex@?$ImPool@UImGuiTabBar@@@@QEAAPEAUImGuiTabBar@@H@Z
	?GetByIndex@?$ImPool@UImGuiTable@@@@QEAAPEAUImGuiTable@@H@Z
	?GetByKey@?$ImPool@UImGuiTable@@@@QEAAPEAUImGuiTable@@I@Z
	?GetCenter@ImGuiViewport@@QEBA?AUImVec2@@XZ
	?GetCenter@ImRect@@QEBA?AUImVec2@@XZ
	?GetCharAdvance@ImFontBaked@@QEAAMG@Z
	?GetClipboardText@ImGui@@YAPEBDXZ
	?GetColorU32@ImGui@@YAIAEBUImVec4@@@Z
	?GetColorU32@ImGui@@YAIHM@Z
	?GetColorU32@ImGui@@YAIIM@Z
	?GetColumnIndex@ImGui@@YAHXZ
	?GetColumnNormFromOffset@ImGui@@YAMPEBUImGuiOldColumns@@M@Z
	?GetColumnOffset@ImGui@@YAMH@Z
	?GetColumnOffsetFromNorm@ImGui@@YAMPEBUImGuiOldColumns@@M@Z
	?GetColumnSettings@ImGuiTableSettings@@QEAAPEAUImGuiTableColumnSettings@@XZ
	?GetColumnWidth@ImGui@@YAMH@Z
	?GetColumnsCount@ImGui@@YAHXZ
	?GetColumnsID@ImGui@@YAIPEBDH@Z
	?GetContentRegionAvail@ImGui@@YA?AUImVec2@@XZ
	?GetCurrentContext@ImGui@@YAPEAUImGuiContext@@XZ
	?GetCurrentWindow@ImGui@@YAPEAUImGuiWindow@@XZ
	?GetCurrentWindowRead@ImGui@@YAPEAUImGuiWindow@@XZ
	?GetCursorPos@ImGui@@YA?AUImVec2@@XZ
	?GetCursorPos@ImGuiInputTextState@@QEBAHXZ
	?GetCursorPosX@ImGui@@YAMXZ
	?GetCursorPosY@ImGui@@YAMXZ
	?GetCursorScreenPos@ImGui@@YA?AUImVec2@@XZ
	?GetCursorStartPos@ImGui@@YA?AUImVec2@@XZ
	?GetCustomRect@ImFontAtlas@@QEBA_NHPEAUImFontAtlasRect@@@Z
	?GetDebugName@ImFont@@QEBAPEBDXZ
	?GetDefaultFont@ImGui@@YAPEAUImFont@@XZ
	?GetDragDropPayload@ImGui@@YAPEBUImGuiPayload@@XZ
	?GetDrawData@ImGui@@YAPEAUImDrawData@@XZ
	?GetDrawListSharedData@ImGui@@YAPEAUImDrawListSharedData@@XZ
	?GetFloat@ImGuiStorage@@QEBAMIM@Z
	?GetFloatRef@ImGuiStorage@@QEAAPEAMIM@Z
	?GetFont@ImGui@@YAPEAUImFont@@XZ
	?GetFontBaked@ImFont@@QEAAPEAUImFontBaked@@MM@Z
	?GetFontBaked@ImGui@@YAPEAUImFontBaked@@XZ
	?GetFontSize@ImGui@@YAMXZ
	?GetFontTexUvWhitePixel@ImGui@@YA?AUImVec2@@XZ
	?GetForegroundDrawList@ImGui@@YAPEAUImDrawList@@PEAUImGuiViewport@@@Z
	?GetForegroundDrawList@ImGui@@YAPEAUImDrawList@@PEAUImGuiWindow@@@Z
	?GetForegroundDrawList@ImGui@@YAPEAUImDrawList@@XZ
	?GetFrameCount@ImGui@@YAHXZ
	?GetFrameHeight@ImGui@@YAMXZ
	?GetFrameHeightWithSpacing@ImGui@@YAMXZ
	?GetGlyphRangesDefault@ImFontAtlas@@QEAAPEBGXZ
	?GetHeight@ImRect@@QEBAMXZ
	?GetHoveredID@ImGui@@YAIXZ
	?GetID@ImGui@@YAIH@Z
	?GetID@ImGui@@YAIPEBD0@Z
	?GetID@ImGui@@YAIPEBD@Z
	?GetID@ImGui@@YAIPEBX@Z
	?GetID@ImGuiWindow@@QEAAIH@Z
	?GetID@ImGuiWindow@@QEAAIPEBD0@Z
	?GetID@ImGuiWindow@@QEAAIPEBX@Z
	?GetIDFromPos@ImGuiWindow@@QEAAIAEBUImVec2@@@Z
	?GetIDFromRectangle@ImGuiWindow@@QEAAIAEBUImRect@@@Z
	?GetIDWithSeed@ImGui@@YAIHI@Z
	?GetIDWithSeed@ImGui@@YAIPEBD0I@Z
	?GetIO@ImGui@@YAAEAUImGuiIO@@PEAUImGuiContext@@@Z
	?GetIO@ImGui@@YAAEAUImGuiIO@@XZ
	?GetIndex@?$ImPool@UImGuiTabBar@@@@QEBAHPEBUImGuiTabBar@@@Z
	?GetIndex@?$ImPool@UImGuiTable@@@@QEBAHPEBUImGuiTable@@@Z
	?GetInputTextState@ImGui@@YAPEAUImGuiInputTextState@@I@Z
	?GetInt@ImGuiStorage@@QEBAHIH@Z
	?GetIntRef@ImGuiStorage@@QEAAPEAHIH@Z
	?GetItemID@ImGui@@YAIXZ
	?GetItemRectMax@ImGui@@YA?AUImVec2@@XZ
	?GetItemRectMin@ImGui@@YA?AUImVec2@@XZ
	?GetItemRectSize@ImGui@@YA?AUImVec2@@XZ
	?GetKeyChordName@ImGui@@YAPEBDH@Z
	?GetKeyData@ImGui@@YAPEAUImGuiKeyData@@PEAUImGuiContext@@W4ImGuiKey@@@Z
	?GetKeyData@ImGui@@YAPEAUImGuiKeyData@@W4ImGuiKey@@@Z
	?GetKeyMagnitude2d@ImGui@@YA?AUImVec2@@W4ImGuiKey@@000@Z
	?GetKeyName@ImGui@@YAPEBDW4ImGuiKey@@@Z
	?GetKeyOwner@ImGui@@YAIW4ImGuiKey@@@Z
	?GetKeyOwnerData@ImGui@@YAPEAUImGuiKeyOwnerData@@PEAUImGuiContext@@W4ImGuiKey@@@Z
	?GetKeyPressedAmount@ImGui@@YAHW4ImGuiKey@@MM@Z
	?GetMainRect@ImGuiViewportP@@QEBA?AUImRect@@XZ
	?GetMainViewport@ImGui@@YAPEAUImGuiViewport@@XZ
	?GetMapSize@?$ImPool@UImGuiMultiSelectState@@@@QEBAHXZ
	?GetMapSize@?$ImPool@UImGuiTabBar@@@@QEBAHXZ
	?GetMapSize@?$ImPool@UImGuiTable@@@@QEBAHXZ
	?GetMouseClickedCount@ImGui@@YAHH@Z
	?GetMouseCursor@ImGui@@YAHXZ
	?GetMouseDragDelta@ImGui@@YA?AUImVec2@@HM@Z
	?GetMousePos@ImGui@@YA?AUImVec2@@XZ
	?GetMousePosOnOpeningCurrentPopup@ImGui@@YA?AUImVec2@@XZ
	?GetName@ImGuiWindowSettings@@QEAAPEADXZ
	?GetNavTweakPressedAmount@ImGui@@YAMW4ImGuiAxis@@@Z
	?GetNextSelectedItem@ImGuiSelectionBasicStorage@@QEAA_NPEAPEAXPEAI@Z
	?GetNextTriangle@ImTriangulator@@QEAAXQEAI@Z
	?GetOrAddByKey@?$ImPool@UImGuiMultiSelectState@@@@QEAAPEAUImGuiMultiSelectState@@I@Z
	?GetOrAddByKey@?$ImPool@UImGuiTabBar@@@@QEAAPEAUImGuiTabBar@@I@Z
	?GetOrAddByKey@?$ImPool@UImGuiTable@@@@QEAAPEAUImGuiTable@@I@Z
	?GetPitch@ImTextureData@@QEBAHXZ
	?GetPixels@ImTextureData@@QEAAPEAEXZ
	?GetPixelsAt@ImTextureData@@QEAAPEAEHH@Z
	?GetPlatformIO@ImGui@@YAAEAUImGuiPlatformIO@@PEAUImGuiContext@@@Z
	?GetPlatformIO@ImGui@@YAAEAUImGuiPlatformIO@@XZ
	?GetPopupAllowedExtentRect@ImGui@@YA?AUImRect@@PEAUImGuiWindow@@@Z
	?GetRoundedFontSize@ImGui@@YAMM@Z
	?GetScrollMaxX@ImGui@@YAMXZ
	?GetScrollMaxY@ImGui@@YAMXZ
	?GetScrollX@ImGui@@YAMXZ
	?GetScrollY@ImGui@@YAMXZ
	?GetSelectionEnd@ImGuiInputTextState@@QEBAHXZ
	?GetSelectionStart@ImGuiInputTextState@@QEBAHXZ
	?GetShortcutRoutingData@ImGui@@YAPEAUImGuiKeyRoutingData@@H@Z
	?GetSize@ImRect@@QEBA?AUImVec2@@XZ
	?GetSpanPtrBegin@?$ImSpanAllocator@$05@@QEAAPEAXH@Z
	?GetSpanPtrEnd@?$ImSpanAllocator@$05@@QEAAPEAXH@Z
	?GetStateStorage@ImGui@@YAPEAUImGuiStorage@@XZ
	?GetStorageIdFromIndex@ImGuiSelectionBasicStorage@@QEAAIH@Z
	?GetStyle@ImGui@@YAAEAUImGuiStyle@@XZ
	?GetStyleColorName@ImGui@@YAPEBDH@Z
	?GetStyleColorVec4@ImGui@@YAAEBUImVec4@@H@Z
	?GetStyleVarInfo@ImGui@@YAPEBUImGuiStyleVarInfo@@H@Z
	?GetTL@ImRect@@QEBA?AUImVec2@@XZ
	?GetTR@ImRect@@QEBA?AUImVec2@@XZ
	?GetTabName@ExampleAppDocuments@@QEAAXPEAUMyDocument@@PEAD_K@Z
	?GetTexID@ImDrawCmd@@QEBA_KXZ
	?GetTexID@ImTextureRef@@QEBA_KXZ
	?GetTexRef@ImTextureData@@QEAA?AUImTextureRef@@XZ
	?GetTextLineHeight@ImGui@@YAMXZ
	?GetTextLineHeightWithSpacing@ImGui@@YAMXZ
	?GetTime@ImGui@@YANXZ
	?GetTopMostAndVisiblePopupModal@ImGui@@YAPEAUImGuiWindow@@XZ
	?GetTopMostPopupModal@ImGui@@YAPEAUImGuiWindow@@XZ
	?GetTreeNodeToLabelSpacing@ImGui@@YAMXZ
	?GetTypematicRepeatRate@ImGui@@YAXHPEAM0@Z
	?GetTypingSelectRequest@ImGui@@YAPEAUImGuiTypingSelectRequest@@H@Z
	?GetVarPtr@ImGuiStyleVarInfo@@QEBAPEAXPEAX@Z
	?GetVersion@ImGui@@YAPEBDXZ
	?GetVoidPtr@ImGuiStorage@@QEBAPEAXI@Z
	?GetVoidPtrRef@ImGuiStorage@@QEAAPEAPEAXIPEAX@Z
	?GetWidth@ImRect@@QEBAMXZ
	?GetWindowDrawList@ImGui@@YAPEAUImDrawList@@XZ
	?GetWindowHeight@ImGui@@YAMXZ
	?GetWindowPos@ImGui@@YA?AUImVec2@@XZ
	?GetWindowResizeBorderID@ImGui@@YAIPEAUImGuiWindow@@W4ImGuiDir@@@Z
	?GetWindowResizeCornerID@ImGui@@YAIPEAUImGuiWindow@@H@Z
	?GetWindowScrollbarID@ImGui@@YAIPEAUImGuiWindow@@W4ImGuiAxis@@@Z
	?GetWindowScrollbarRect@ImGui@@YA?AUImRect@@PEAUImGuiWindow@@W4ImGuiAxis@@@Z
	?GetWindowSize@ImGui@@YA?AUImVec2@@XZ
	?GetWindowWidth@ImGui@@YAMXZ
	?GetWorkRect@ImGuiViewportP@@QEBA?AUImRect@@XZ
	?HSV@ImColor@@SA?AU1@MMMM@Z
	?HasSelection@ImGuiInputTextState@@QEBA_NXZ
	?ImAlphaBlendColors@@YAIII@Z
	?ImBezierCubicCalc@@YA?AUImVec2@@AEBU1@000M@Z
	?ImBezierCubicClosestPoint@@YA?AUImVec2@@AEBU1@0000H@Z
	?ImBezierCubicClosestPointCasteljau@@YA?AUImVec2@@AEBU1@0000M@Z
	?ImBezierQuadraticCalc@@YA?AUImVec2@@AEBU1@00M@Z
	?ImBitArrayClearAllBits@@YAXPEAIH@Z
	?ImBitArrayClearBit@@YAXPEAIH@Z
	?ImBitArrayGetStorageSizeInBytes@@YA_KH@Z
	?ImBitArraySetBit@@YAXPEAIH@Z
	?ImBitArraySetBitRange@@YAXPEAIHH@Z
	?ImFileClose@@YA_NPEAU_iobuf@@@Z
	?ImFileGetSize@@YA_KPEAU_iobuf@@@Z
	?ImFileLoadToMemory@@YAPEAXPEBD0PEA_KH@Z
	?ImFileOpen@@YAPEAU_iobuf@@PEBD0@Z
	?ImFileRead@@YA_KPEAX_K1PEAU_iobuf@@@Z
	?ImFileWrite@@YA_KPEBX_K1PEAU_iobuf@@@Z
	?ImFontAtlasAddDrawListSharedData@@YAXPEAUImFontAtlas@@PEAUImDrawListSharedData@@@Z
	?ImFontAtlasBakedAdd@@YAPEAUImFontBaked@@PEAUImFontAtlas@@PEAUImFont@@MMI@Z
	?ImFontAtlasBakedAddFontGlyph@@YAPEAUImFontGlyph@@PEAUImFontAtlas@@PEAUImFontBaked@@PEAUImFontConfig@@PEBU1@@Z
	?ImFontAtlasBakedDiscard@@YAXPEAUImFontAtlas@@PEAUImFont@@PEAUImFontBaked@@@Z
	?ImFontAtlasBakedDiscardFontGlyph@@YAXPEAUImFontAtlas@@PEAUImFont@@PEAUImFontBaked@@PEAUImFontGlyph@@@Z
	?ImFontAtlasBakedGetClosestMatch@@YAPEAUImFontBaked@@PEAUImFontAtlas@@PEAUImFont@@MM@Z
	?ImFontAtlasBakedGetId@@YAIIMM@Z
	?ImFontAtlasBakedGetOrAdd@@YAPEAUImFontBaked@@PEAUImFontAtlas@@PEAUImFont@@MM@Z
	?ImFontAtlasBakedSetFontGlyphBitmap@@YAXPEAUImFontAtlas@@PEAUImFontBaked@@PEAUImFontConfig@@PEAUImFontGlyph@@PEAUImTextureRect@@PEBEW4ImTextureFormat@@H@Z
	?ImFontAtlasBuildClear@@YAXPEAUImFontAtlas@@@Z
	?ImFontAtlasBuildDestroy@@YAXPEAUImFontAtlas@@@Z
	?ImFontAtlasBuildDiscardBakes@@YAXPEAUImFontAtlas@@H@Z
	?ImFontAtlasBuildGetOversampleFactors@@YAXPEAUImFontConfig@@PEAUImFontBaked@@PEAH2@Z
	?ImFontAtlasBuildInit@@YAXPEAUImFontAtlas@@@Z
	?ImFontAtlasBuildLegacyPreloadAllGlyphRanges@@YAXPEAUImFontAtlas@@@Z
	?ImFontAtlasBuildMain@@YAXPEAUImFontAtlas@@@Z
	?ImFontAtlasBuildRenderBitmapFromString@@YAXPEAUImFontAtlas@@HHHHPEBDD@Z
	?ImFontAtlasBuildSetupFontLoader@@YAXPEAUImFontAtlas@@PEBUImFontLoader@@@Z
	?ImFontAtlasBuildSetupFontSpecialGlyphs@@YAXPEAUImFontAtlas@@PEAUImFont@@PEAUImFontConfig@@@Z
	?ImFontAtlasBuildUpdatePointers@@YAXPEAUImFontAtlas@@@Z
	?ImFontAtlasDebugLogTextureRequests@@YAXPEAUImFontAtlas@@@Z
	?ImFontAtlasFontDestroyOutput@@YAXPEAUImFontAtlas@@PEAUImFont@@@Z
	?ImFontAtlasFontDestroySourceData@@YAXPEAUImFontAtlas@@PEAUImFontConfig@@@Z
	?ImFontAtlasFontDiscardBakes@@YAXPEAUImFontAtlas@@PEAUImFont@@H@Z
	?ImFontAtlasFontInitOutput@@YA_NPEAUImFontAtlas@@PEAUImFont@@@Z
	?ImFontAtlasFontSourceAddToFont@@YAXPEAUImFontAtlas@@PEAUImFont@@PEAUImFontConfig@@@Z
	?ImFontAtlasFontSourceInit@@YA_NPEAUImFontAtlas@@PEAUImFontConfig@@@Z
	?ImFontAtlasGetFontLoaderForStbTruetype@@YAPEBUImFontLoader@@XZ
	?ImFontAtlasGetMouseCursorTexData@@YA_NPEAUImFontAtlas@@HPEAUImVec2@@1QEAU2@2@Z
	?ImFontAtlasPackAddRect@@YAHPEAUImFontAtlas@@HHPEAUImFontAtlasRectEntry@@@Z
	?ImFontAtlasPackDiscardRect@@YAXPEAUImFontAtlas@@H@Z
	?ImFontAtlasPackGetRect@@YAPEAUImTextureRect@@PEAUImFontAtlas@@H@Z
	?ImFontAtlasPackGetRectSafe@@YAPEAUImTextureRect@@PEAUImFontAtlas@@H@Z
	?ImFontAtlasPackInit@@YAXPEAUImFontAtlas@@@Z
	?ImFontAtlasRectId_GetGeneration@@YAHH@Z
	?ImFontAtlasRectId_GetIndex@@YAHH@Z
	?ImFontAtlasRectId_Make@@YAHHH@Z
	?ImFontAtlasRemoveDrawListSharedData@@YAXPEAUImFontAtlas@@PEAUImDrawListSharedData@@@Z
	?ImFontAtlasTextureAdd@@YAPEAUImTextureData@@PEAUImFontAtlas@@HH@Z
	?ImFontAtlasTextureBlockConvert@@YAXPEBEW4ImTextureFormat@@HPEAE1HHH@Z
	?ImFontAtlasTextureBlockCopy@@YAXPEAUImTextureData@@HH0HHHH@Z
	?ImFontAtlasTextureBlockFill@@YAXPEAUImTextureData@@HHHHI@Z
	?ImFontAtlasTextureBlockPostProcess@@YAXPEAUImFontAtlasPostProcessData@@@Z
	?ImFontAtlasTextureBlockPostProcessMultiply@@YAXPEAUImFontAtlasPostProcessData@@M@Z
	?ImFontAtlasTextureBlockQueueUpload@@YAXPEAUImFontAtlas@@PEAUImTextureData@@HHHH@Z
	?ImFontAtlasTextureCompact@@YAXPEAUImFontAtlas@@@Z
	?ImFontAtlasTextureGetSizeEstimate@@YA?AUImVec2i@@PEAUImFontAtlas@@@Z
	?ImFontAtlasTextureGrow@@YAXPEAUImFontAtlas@@HH@Z
	?ImFontAtlasTextureMakeSpace@@YAXPEAUImFontAtlas@@@Z
	?ImFontAtlasTextureRepack@@YAXPEAUImFontAtlas@@HH@Z
	?ImFontAtlasUpdateDrawListsSharedData@@YAXPEAUImFontAtlas@@@Z
	?ImFontAtlasUpdateDrawListsTextures@@YAXPEAUImFontAtlas@@UImTextureRef@@1@Z
	?ImFontAtlasUpdateNewFrame@@YAXPEAUImFontAtlas@@H_N@Z
	?ImFormatString@@YAHPEAD_KPEBDZZ
	?ImFormatStringToTempBuffer@@YAXPEAPEBD0PEBDZZ
	?ImFormatStringToTempBufferV@@YAXPEAPEBD0PEBDPEAD@Z
	?ImFormatStringV@@YAHPEAD_KPEBD0@Z
	?ImGui_ImplDX11_CreateDeviceObjects@@YA_NXZ
	?ImGui_ImplDX11_Init@@YA_NPEAUID3D11Device@@PEAUID3D11DeviceContext@@@Z
	?ImGui_ImplDX11_InvalidateDeviceObjects@@YAXXZ
	?ImGui_ImplDX11_NewFrame@@YAXXZ
	?ImGui_ImplDX11_RenderDrawData@@YAXPEAUImDrawData@@@Z
	?ImGui_ImplDX11_Shutdown@@YAXXZ
	?ImGui_ImplDX11_UpdateTexture@@YAXPEAUImTextureData@@@Z
	?ImGui_ImplDX9_CreateDeviceObjects@@YA_NXZ
	?ImGui_ImplDX9_Init@@YA_NPEAUIDirect3DDevice9@@@Z
	?ImGui_ImplDX9_InvalidateDeviceObjects@@YAXXZ
	?ImGui_ImplDX9_NewFrame@@YAXXZ
	?ImGui_ImplDX9_RenderDrawData@@YAXPEAUImDrawData@@@Z
	?ImGui_ImplDX9_Shutdown@@YAXXZ
	?ImGui_ImplDX9_UpdateTexture@@YAXPEAUImTextureData@@@Z
	?ImGui_ImplWin32_EnableAlphaCompositing@@YAXPEAX@Z
	?ImGui_ImplWin32_EnableDpiAwareness@@YAXXZ
	?ImGui_ImplWin32_GetDpiScaleForHwnd@@YAMPEAX@Z
	?ImGui_ImplWin32_GetDpiScaleForMonitor@@YAMPEAX@Z
	?ImGui_ImplWin32_Init@@YA_NPEAX@Z
	?ImGui_ImplWin32_InitForOpenGL@@YA_NPEAX@Z
	?ImGui_ImplWin32_KeyEventToImGuiKey@@YA?AW4ImGuiKey@@_K_J@Z
	?ImGui_ImplWin32_NewFrame@@YAXXZ
	?ImGui_ImplWin32_Shutdown@@YAXXZ
	?ImGui_ImplWin32_WndProcHandler@@YA_JPEAUHWND__@@I_K_J@Z
	?ImGui_ImplWin32_WndProcHandlerEx@@YA_JPEAUHWND__@@I_K_JAEAUImGuiIO@@@Z
	?ImHashData@@YAIPEBX_KI@Z
	?ImHashStr@@YAIPEBD_KI@Z
	?ImLineClosestPoint@@YA?AUImVec2@@AEBU1@00@Z
	?ImLowerBound@@YAPEAUImGuiStoragePair@@PEAU1@0I@Z
	?ImMemdup@@YAPEAXPEBX_K@Z
	?ImParseFormatFindEnd@@YAPEBDPEBD@Z
	?ImParseFormatFindStart@@YAPEBDPEBD@Z
	?ImParseFormatPrecision@@YAHPEBDH@Z
	?ImParseFormatSanitizeForPrinting@@YAXPEBDPEAD_K@Z
	?ImParseFormatSanitizeForScanning@@YAPEBDPEBDPEAD_K@Z
	?ImParseFormatTrimDecorations@@YAPEBDPEBDPEAD_K@Z
	?ImStrSkipBlank@@YAPEBDPEBD@Z
	?ImStrTrimBlanks@@YAXPEAD@Z
	?ImStrbol@@YAPEBDPEBD0@Z
	?ImStrchrRange@@YAPEBDPEBD0D@Z
	?ImStrdup@@YAPEADPEBD@Z
	?ImStrdupcpy@@YAPEADPEADPEA_KPEBD@Z
	?ImStreolRange@@YAPEBDPEBD0@Z
	?ImStricmp@@YAHPEBD0@Z
	?ImStristr@@YAPEBDPEBD000@Z
	?ImStrlenW@@YAHPEBG@Z
	?ImStrncpy@@YAXPEADPEBD_K@Z
	?ImStrnicmp@@YAHPEBD0_K@Z
	?ImTextCharFromUtf8@@YAHPEAIPEBD1@Z
	?ImTextCharToUtf8@@YAPEBDQEADI@Z
	?ImTextCountCharsFromUtf8@@YAHPEBD0@Z
	?ImTextCountLines@@YAHPEBD0@Z
	?ImTextCountUtf8BytesFromChar@@YAHPEBD0@Z
	?ImTextCountUtf8BytesFromStr@@YAHPEBG0@Z
	?ImTextFindPreviousUtf8Codepoint@@YAPEBDPEBD0@Z
	?ImTextStrFromUtf8@@YAHPEAGHPEBD1PEAPEBD@Z
	?ImTextStrToUtf8@@YAHPEADHPEBG1@Z
	?ImTextureDataGetFormatBytesPerPixel@@YAHW4ImTextureFormat@@@Z
	?ImTextureDataGetFormatName@@YAPEBDW4ImTextureFormat@@@Z
	?ImTextureDataGetStatusName@@YAPEBDW4ImTextureStatus@@@Z
	?ImTriangleArea@@YAMAEBUImVec2@@00@Z
	?ImTriangleBarycentricCoords@@YAXAEBUImVec2@@000AEAM11@Z
	?ImTriangleClosestPoint@@YA?AUImVec2@@AEBU1@000@Z
	?ImTriangleContainsPoint@@YA_NAEBUImVec2@@000@Z
	?ImTriangleIsClockwise@@YA_NAEBUImVec2@@00@Z
	?Image@ImGui@@YAXUImTextureRef@@AEBUImVec2@@11@Z
	?ImageButton@ImGui@@YA_NPEBDUImTextureRef@@AEBUImVec2@@22AEBUImVec4@@3@Z
	?ImageButtonEx@ImGui@@YA_NIUImTextureRef@@AEBUImVec2@@11AEBUImVec4@@2H@Z
	?ImageWithBg@ImGui@@YAXUImTextureRef@@AEBUImVec2@@11AEBUImVec4@@2@Z
	?IncludeItemByIndex@ImGuiListClipper@@QEAAXH@Z
	?IncludeItemsByIndex@ImGuiListClipper@@QEAAXHH@Z
	?Indent@ImGui@@YAXM@Z
	?Init@ImTriangulator@@QEAAXPEBUImVec2@@HPEAX@Z
	?InitHack@@YAXXZ
	?Initialize@ImGui@@YAXXZ
	?InitializeBuffer@@YAXXZ
	?InputDouble@ImGui@@YA_NPEBDPEANNN0H@Z
	?InputFloat2@ImGui@@YA_NPEBDQEAM0H@Z
	?InputFloat3@ImGui@@YA_NPEBDQEAM0H@Z
	?InputFloat4@ImGui@@YA_NPEBDQEAM0H@Z
	?InputFloat@ImGui@@YA_NPEBDPEAMMM0H@Z
	?InputInt2@ImGui@@YA_NPEBDQEAHH@Z
	?InputInt3@ImGui@@YA_NPEBDQEAHH@Z
	?InputInt4@ImGui@@YA_NPEBDQEAHH@Z
	?InputInt@ImGui@@YA_NPEBDPEAHHHH@Z
	?InputScalar@ImGui@@YA_NPEBDHPEAXPEBX20H@Z
	?InputScalarN@ImGui@@YA_NPEBDHPEAXHPEBX20H@Z
	?InputText@ImGui@@YA_NPEBDPEAD_KHP6AHPEAUImGuiInputTextCallbackData@@@ZPEAX@Z
	?InputText@ImGui@@YA_NPEBDPEAV?$basic_string@DU?$char_traits@D@std@@V?$allocator@D@2@@std@@HP6AHPEAUImGuiInputTextCallbackData@@@ZPEAX@Z
	?InputTextDeactivateHook@ImGui@@YAXI@Z
	?InputTextEx@ImGui@@YA_NPEBD0PEADHAEBUImVec2@@HP6AHPEAUImGuiInputTextCallbackData@@@ZPEAX@Z
	?InputTextMultiline@ImGui@@YA_NPEBDPEAD_KAEBUImVec2@@HP6AHPEAUImGuiInputTextCallbackData@@@ZPEAX@Z
	?InputTextMultiline@ImGui@@YA_NPEBDPEAV?$basic_string@DU?$char_traits@D@std@@V?$allocator@D@2@@std@@AEBUImVec2@@HP6AHPEAUImGuiInputTextCallbackData@@@ZPEAX@Z
	?InputTextWithHint@ImGui@@YA_NPEBD0PEAD_KHP6AHPEAUImGuiInputTextCallbackData@@@ZPEAX@Z
	?InputTextWithHint@ImGui@@YA_NPEBD0PEAV?$basic_string@DU?$char_traits@D@std@@V?$allocator@D@2@@std@@HP6AHPEAUImGuiInputTextCallbackData@@@ZPEAX@Z
	?InsertChars@ImGuiInputTextCallbackData@@QEAAXHPEBD0@Z
	?InvisibleButton@ImGui@@YA_NPEBDAEBUImVec2@@H@Z
	?IsActive@ImGuiTextFilter@@QEBA_NXZ
	?IsActiveIdUsingNavDir@ImGui@@YA_NW4ImGuiDir@@@Z
	?IsAliasKey@ImGui@@YA_NW4ImGuiKey@@@Z
	?IsAnyItemActive@ImGui@@YA_NXZ
	?IsAnyItemFocused@ImGui@@YA_NXZ
	?IsAnyItemHovered@ImGui@@YA_NXZ
	?IsAnyMouseDown@ImGui@@YA_NXZ
	?IsClippedEx@ImGui@@YA_NAEBUImRect@@I@Z
	?IsDataType@ImGuiPayload@@QEBA_NPEBD@Z
	?IsDragDropActive@ImGui@@YA_NXZ
	?IsDragDropPayloadBeingAccepted@ImGui@@YA_NXZ
	?IsEar@ImTriangulator@@QEBA_NHHHAEBUImVec2@@00@Z
	?IsExecutableAddress@@YAHPEAX@Z
	?IsGamepadKey@ImGui@@YA_NW4ImGuiKey@@@Z
	?IsGlyphInFont@ImFont@@QEAA_NG@Z
	?IsGlyphLoaded@ImFontBaked@@QEAA_NG@Z
	?IsGlyphRangeUnused@ImFont@@QEAA_NII@Z
	?IsInverted@ImRect@@QEBA_NXZ
	?IsItemActivated@ImGui@@YA_NXZ
	?IsItemActive@ImGui@@YA_NXZ
	?IsItemClicked@ImGui@@YA_NH@Z
	?IsItemDeactivated@ImGui@@YA_NXZ
	?IsItemDeactivatedAfterEdit@ImGui@@YA_NXZ
	?IsItemEdited@ImGui@@YA_NXZ
	?IsItemFocused@ImGui@@YA_NXZ
	?IsItemHovered@ImGui@@YA_NH@Z
	?IsItemToggledOpen@ImGui@@YA_NXZ
	?IsItemToggledSelection@ImGui@@YA_NXZ
	?IsItemVisible@ImGui@@YA_NXZ
	?IsKeyChordPressed@ImGui@@YA_NH@Z
	?IsKeyChordPressed@ImGui@@YA_NHHI@Z
	?IsKeyDown@ImGui@@YA_NW4ImGuiKey@@@Z
	?IsKeyDown@ImGui@@YA_NW4ImGuiKey@@I@Z
	?IsKeyPressed@ImGui@@YA_NW4ImGuiKey@@HI@Z
	?IsKeyPressed@ImGui@@YA_NW4ImGuiKey@@_N@Z
	?IsKeyReleased@ImGui@@YA_NW4ImGuiKey@@@Z
	?IsKeyReleased@ImGui@@YA_NW4ImGuiKey@@I@Z
	?IsKeyboardKey@ImGui@@YA_NW4ImGuiKey@@@Z
	?IsLRModKey@ImGui@@YA_NW4ImGuiKey@@@Z
	?IsLegacyKey@ImGui@@YA_NW4ImGuiKey@@@Z
	?IsLoaded@ImFont@@QEBA_NXZ
	?IsMouseClicked@ImGui@@YA_NHHI@Z
	?IsMouseClicked@ImGui@@YA_NH_N@Z
	?IsMouseDoubleClicked@ImGui@@YA_NH@Z
	?IsMouseDoubleClicked@ImGui@@YA_NHI@Z
	?IsMouseDown@ImGui@@YA_NH@Z
	?IsMouseDown@ImGui@@YA_NHI@Z
	?IsMouseDragPastThreshold@ImGui@@YA_NHM@Z
	?IsMouseDragging@ImGui@@YA_NHM@Z
	?IsMouseHoveringRect@ImGui@@YA_NAEBUImVec2@@0_N@Z
	?IsMouseKey@ImGui@@YA_NW4ImGuiKey@@@Z
	?IsMousePosValid@ImGui@@YA_NPEBUImVec2@@@Z
	?IsMouseReleased@ImGui@@YA_NH@Z
	?IsMouseReleased@ImGui@@YA_NHI@Z
	?IsMouseReleasedWithDelay@ImGui@@YA_NHM@Z
	?IsNamedKey@ImGui@@YA_NW4ImGuiKey@@@Z
	?IsNamedKeyOrMod@ImGui@@YA_NW4ImGuiKey@@@Z
	?IsPopupOpen@ImGui@@YA_NIH@Z
	?IsPopupOpen@ImGui@@YA_NPEBDH@Z
	?IsRectVisible@ImGui@@YA_NAEBUImVec2@@0@Z
	?IsRectVisible@ImGui@@YA_NAEBUImVec2@@@Z
	?IsWindowAbove@ImGui@@YA_NPEAUImGuiWindow@@0@Z
	?IsWindowAppearing@ImGui@@YA_NXZ
	?IsWindowChildOf@ImGui@@YA_NPEAUImGuiWindow@@0_N@Z
	?IsWindowCollapsed@ImGui@@YA_NXZ
	?IsWindowContentHoverable@ImGui@@YA_NPEAUImGuiWindow@@H@Z
	?IsWindowFocused@ImGui@@YA_NH@Z
	?IsWindowHovered@ImGui@@YA_NH@Z
	?IsWindowNavFocusable@ImGui@@YA_NPEAUImGuiWindow@@@Z
	?IsWindowWithinBeginStackOf@ImGui@@YA_NPEAUImGuiWindow@@0@Z
	?ItemAdd@ImGui@@YA_NAEBUImRect@@IPEBU2@H@Z
	?ItemHoverable@ImGui@@YA_NAEBUImRect@@IH@Z
	?ItemSize@ImGui@@YAXAEBUImRect@@M@Z
	?ItemSize@ImGui@@YAXAEBUImVec2@@M@Z
	?KeepAliveID@ImGui@@YAXI@Z
	?LabelText@ImGui@@YAXPEBD0ZZ
	?LabelTextV@ImGui@@YAXPEBD0PEAD@Z
	?ListBox@ImGui@@YA_NPEBDPEAHP6APEBDPEAXH@Z2HH@Z
	?ListBox@ImGui@@YA_NPEBDPEAHQEBQEBDHH@Z
	?LoadIniSettingsFromDisk@ImGui@@YAXPEBD@Z
	?LoadIniSettingsFromMemory@ImGui@@YAXPEBD_K@Z
	?LocalizeGetMsg@ImGui@@YAPEBDW4ImGuiLocKey@@@Z
	?LocalizeRegisterEntries@ImGui@@YAXPEBUImGuiLocEntry@@H@Z
	?LogBegin@ImGui@@YAXHH@Z
	?LogButtons@ImGui@@YAXXZ
	?LogFinish@ImGui@@YAXXZ
	?LogRenderedText@ImGui@@YAXPEBUImVec2@@PEBD1@Z
	?LogSetNextTextDecoration@ImGui@@YAXPEBD0@Z
	?LogText@ImGui@@YAXPEBDZZ
	?LogTextV@ImGui@@YAXPEBDPEAD@Z
	?LogToBuffer@ImGui@@YAXH@Z
	?LogToClipboard@ImGui@@YAXH@Z
	?LogToFile@ImGui@@YAXHPEBD@Z
	?LogToTTY@ImGui@@YAXH@Z
	?MainThread@@YAKPEAX@Z
	?MarkIniSettingsDirty@ImGui@@YAXPEAUImGuiWindow@@@Z
	?MarkIniSettingsDirty@ImGui@@YAXXZ
	?MarkItemEdited@ImGui@@YAXI@Z
	?MemAlloc@ImGui@@YAPEAX_K@Z
	?MemFree@ImGui@@YAXPEAX@Z
	?MenuBarRect@ImGuiWindow@@QEBA?AUImRect@@XZ
	?MenuItem@ImGui@@YA_NPEBD0PEA_N_N@Z
	?MenuItem@ImGui@@YA_NPEBD0_N1@Z
	?MenuItemEx@ImGui@@YA_NPEBD00_N1@Z
	?Merge@ImDrawListSplitter@@QEAAXPEAUImDrawList@@@Z
	?MouseButtonToKey@ImGui@@YA?AW4ImGuiKey@@H@Z
	?MoveAll@ExampleDualListBox@@QEAAXHH@Z
	?MoveSelected@ExampleDualListBox@@QEAAXHH@Z
	?MultiSelectAddSetAll@ImGui@@YAXPEAUImGuiMultiSelectTempData@@_N@Z
	?MultiSelectAddSetRange@ImGui@@YAXPEAUImGuiMultiSelectTempData@@_NH_J2@Z
	?MultiSelectItemFooter@ImGui@@YAXIPEA_N0@Z
	?MultiSelectItemHeader@ImGui@@YAXIPEA_NPEAH@Z
	?NavClearPreferredPosForAxis@ImGui@@YAXW4ImGuiAxis@@@Z
	?NavHighlightActivated@ImGui@@YAXI@Z
	?NavInitRequestApplyResult@ImGui@@YAXXZ
	?NavInitWindow@ImGui@@YAXPEAUImGuiWindow@@_N@Z
	?NavMoveRequestApplyResult@ImGui@@YAXXZ
	?NavMoveRequestButNoResultYet@ImGui@@YA_NXZ
	?NavMoveRequestCancel@ImGui@@YAXXZ
	?NavMoveRequestForward@ImGui@@YAXW4ImGuiDir@@0HH@Z
	?NavMoveRequestResolveWithLastItem@ImGui@@YAXPEAUImGuiNavItemData@@@Z
	?NavMoveRequestResolveWithPastTreeNode@ImGui@@YAXPEAUImGuiNavItemData@@PEBUImGuiTreeNodeStackData@@@Z
	?NavMoveRequestSubmit@ImGui@@YAXW4ImGuiDir@@0HH@Z
	?NavMoveRequestTryWrapping@ImGui@@YAXPEAUImGuiWindow@@H@Z
	?NavUpdateCurrentWindowIsScrollPushableX@ImGui@@YAXXZ
	?NewFrame@ImGui@@YAXXZ
	?NewLine@ImGui@@YAXXZ
	?NextColumn@ImGui@@YAXXZ
	?NotifyOfDocumentsClosedElsewhere@ExampleAppDocuments@@QEAAXXZ
	?OnCharPressed@ImGuiInputTextState@@QEAAXI@Z
	?OnKeyPressed@ImGuiInputTextState@@QEAAXH@Z
	?OpenPopup@ImGui@@YAXIH@Z
	?OpenPopup@ImGui@@YAXPEBDH@Z
	?OpenPopupEx@ImGui@@YAXIH@Z
	?OpenPopupOnItemClick@ImGui@@YAXPEBDH@Z
	?Overlaps@ImRect@@QEBA_NAEBU1@@Z
	?PassFilter@ImGuiTextFilter@@QEBA_NPEBD0@Z
	?PathArcTo@ImDrawList@@QEAAXAEBUImVec2@@MMMH@Z
	?PathArcToFast@ImDrawList@@QEAAXAEBUImVec2@@MHH@Z
	?PathBezierCubicCurveTo@ImDrawList@@QEAAXAEBUImVec2@@00H@Z
	?PathBezierQuadraticCurveTo@ImDrawList@@QEAAXAEBUImVec2@@0H@Z
	?PathEllipticalArcTo@ImDrawList@@QEAAXAEBUImVec2@@0MMMH@Z
	?PathFillConcave@ImDrawList@@QEAAXI@Z
	?PathFillConvex@ImDrawList@@QEAAXI@Z
	?PathLineTo@ImDrawList@@QEAAXAEBUImVec2@@@Z
	?PathRect@ImDrawList@@QEAAXAEBUImVec2@@0MH@Z
	?PathStroke@ImDrawList@@QEAAXIHM@Z
	?PlotEx@ImGui@@YAHW4ImGuiPlotType@@PEBDP6AMPEAXH@Z2HH1MMAEBUImVec2@@@Z
	?PlotHistogram@ImGui@@YAXPEBDP6AMPEAXH@Z1HH0MMUImVec2@@@Z
	?PlotHistogram@ImGui@@YAXPEBDPEBMHH0MMUImVec2@@H@Z
	?PlotLines@ImGui@@YAXPEBDP6AMPEAXH@Z1HH0MMUImVec2@@@Z
	?PlotLines@ImGui@@YAXPEBDPEBMHH0MMUImVec2@@H@Z
	?PopClipRect@ImDrawList@@QEAAXXZ
	?PopClipRect@ImGui@@YAXXZ
	?PopColumnsBackground@ImGui@@YAXXZ
	?PopFocusScope@ImGui@@YAXXZ
	?PopFont@ImGui@@YAXXZ
	?PopFontSize@ImGui@@YAXXZ
	?PopID@ImGui@@YAXXZ
	?PopItemFlag@ImGui@@YAXXZ
	?PopItemWidth@ImGui@@YAXXZ
	?PopPasswordFont@ImGui@@YAXXZ
	?PopStyleColor@ImGui@@YAXH@Z
	?PopStyleVar@ImGui@@YAXH@Z
	?PopTextWrapPos@ImGui@@YAXXZ
	?PopTexture@ImDrawList@@QEAAXXZ
	?PrimQuadUV@ImDrawList@@QEAAXAEBUImVec2@@0000000I@Z
	?PrimRect@ImDrawList@@QEAAXAEBUImVec2@@0I@Z
	?PrimRectUV@ImDrawList@@QEAAXAEBUImVec2@@000I@Z
	?PrimReserve@ImDrawList@@QEAAXHH@Z
	?PrimUnreserve@ImDrawList@@QEAAXHH@Z
	?PrimVtx@ImDrawList@@QEAAXAEBUImVec2@@0I@Z
	?PrimWriteIdx@ImDrawList@@QEAAXG@Z
	?PrimWriteVtx@ImDrawList@@QEAAXAEBUImVec2@@0I@Z
	?ProgressBar@ImGui@@YAXMAEBUImVec2@@PEBD@Z
	?PushClipRect@ImDrawList@@QEAAXAEBUImVec2@@0_N@Z
	?PushClipRect@ImGui@@YAXAEBUImVec2@@0_N@Z
	?PushClipRectFullScreen@ImDrawList@@QEAAXXZ
	?PushColumnClipRect@ImGui@@YAXH@Z
	?PushColumnsBackground@ImGui@@YAXXZ
	?PushFocusScope@ImGui@@YAXI@Z
	?PushFont@ImGui@@YAXPEAUImFont@@M@Z
	?PushFontSize@ImGui@@YAXM@Z
	?PushID@ImGui@@YAXH@Z
	?PushID@ImGui@@YAXPEBD0@Z
	?PushID@ImGui@@YAXPEBD@Z
	?PushID@ImGui@@YAXPEBX@Z
	?PushItemFlag@ImGui@@YAXH_N@Z
	?PushItemWidth@ImGui@@YAXM@Z
	?PushMultiItemsWidths@ImGui@@YAXHM@Z
	?PushOverrideID@ImGui@@YAXI@Z
	?PushPasswordFont@ImGui@@YAXXZ
	?PushStyleColor@ImGui@@YAXHAEBUImVec4@@@Z
	?PushStyleColor@ImGui@@YAXHI@Z
	?PushStyleVar@ImGui@@YAXHAEBUImVec2@@@Z
	?PushStyleVar@ImGui@@YAXHM@Z
	?PushStyleVarX@ImGui@@YAXHM@Z
	?PushStyleVarY@ImGui@@YAXHM@Z
	?PushTextWrapPos@ImGui@@YAXM@Z
	?PushTexture@ImDrawList@@QEAAXUImTextureRef@@@Z
	?RadioButton@ImGui@@YA_NPEBDPEAHH@Z
	?RadioButton@ImGui@@YA_NPEBD_N@Z
	?ReclassifyNode@ImTriangulator@@QEAAXPEAUImTriangulatorNode@@@Z
	?Rect@ImGuiWindow@@QEBA?AUImRect@@XZ
	?RegisterFontAtlas@ImGui@@YAXPEAUImFontAtlas@@@Z
	?RegisterUserTexture@ImGui@@YAXPEAUImTextureData@@@Z
	?ReloadUserBufAndKeepSelection@ImGuiInputTextState@@QEAAXXZ
	?ReloadUserBufAndMoveToEnd@ImGuiInputTextState@@QEAAXXZ
	?ReloadUserBufAndSelectAll@ImGuiInputTextState@@QEAAXXZ
	?Remove@?$ImPool@UImGuiTable@@@@QEAAXIH@Z
	?Remove@?$ImPool@UImGuiTable@@@@QEAAXIPEBUImGuiTable@@@Z
	?RemoveContextHook@ImGui@@YAXPEAUImGuiContext@@I@Z
	?RemoveCustomRect@ImFontAtlas@@QEAAXH@Z
	?RemoveFont@ImFontAtlas@@QEAAXPEAUImFont@@@Z
	?RemoveSettingsHandler@ImGui@@YAXPEBD@Z
	?Render@ImGui@@YAXXZ
	?RenderArrow@ImGui@@YAXPEAUImDrawList@@UImVec2@@IW4ImGuiDir@@M@Z
	?RenderArrowPointingAt@ImGui@@YAXPEAUImDrawList@@UImVec2@@1W4ImGuiDir@@I@Z
	?RenderBullet@ImGui@@YAXPEAUImDrawList@@UImVec2@@I@Z
	?RenderChar@ImFont@@QEAAXPEAUImDrawList@@MAEBUImVec2@@IGPEBUImVec4@@@Z
	?RenderCheckMark@ImGui@@YAXPEAUImDrawList@@UImVec2@@IM@Z
	?RenderColorRectWithAlphaCheckerboard@ImGui@@YAXPEAUImDrawList@@UImVec2@@1IM1MH@Z
	?RenderDragDropTargetRect@ImGui@@YAXAEBUImRect@@0@Z
	?RenderFrame@ImGui@@YAXUImVec2@@0I_NM@Z
	?RenderFrameBorder@ImGui@@YAXUImVec2@@0M@Z
	?RenderMouseCursor@ImGui@@YAXUImVec2@@MHIII@Z
	?RenderNavCursor@ImGui@@YAXAEBUImRect@@IH@Z
	?RenderRectFilledRangeH@ImGui@@YAXPEAUImDrawList@@AEBUImRect@@IMMM@Z
	?RenderRectFilledWithHole@ImGui@@YAXPEAUImDrawList@@AEBUImRect@@1IM@Z
	?RenderText@ImFont@@QEAAXPEAUImDrawList@@MAEBUImVec2@@IAEBUImVec4@@PEBD3M_N@Z
	?RenderText@ImGui@@YAXUImVec2@@PEBD1_N@Z
	?RenderTextClipped@ImGui@@YAXAEBUImVec2@@0PEBD1PEBU2@0PEBUImRect@@@Z
	?RenderTextClippedEx@ImGui@@YAXPEAUImDrawList@@AEBUImVec2@@1PEBD2PEBU3@1PEBUImRect@@@Z
	?RenderTextEllipsis@ImGui@@YAXPEAUImDrawList@@AEBUImVec2@@1MPEBD2PEBU3@@Z
	?RenderTextWrapped@ImGui@@YAXUImVec2@@PEBD1M@Z
	?Reserve@?$ImSpanAllocator@$05@@QEAAXH_KH@Z
	?Reset@ImGuiListClipperData@@QEAAXPEAUImGuiListClipper@@@Z
	?ResetMouseDragDelta@ImGui@@YAXH@Z
	?SameLine@ImGui@@YAXMM@Z
	?SaveIniSettingsToDisk@ImGui@@YAXPEBD@Z
	?SaveIniSettingsToMemory@ImGui@@YAPEBDPEA_K@Z
	?ScaleAllSizes@ImGuiStyle@@QEAAXM@Z
	?ScaleClipRects@ImDrawData@@QEAAXAEBUImVec2@@@Z
	?ScaleWindowsInViewport@ImGui@@YAXPEAUImGuiViewportP@@M@Z
	?ScrollToItem@ImGui@@YAXH@Z
	?ScrollToRect@ImGui@@YAXPEAUImGuiWindow@@AEBUImRect@@H@Z
	?ScrollToRectEx@ImGui@@YA?AUImVec2@@PEAUImGuiWindow@@AEBUImRect@@H@Z
	?Scrollbar@ImGui@@YAXW4ImGuiAxis@@@Z
	?ScrollbarEx@ImGui@@YA_NAEBUImRect@@IW4ImGuiAxis@@PEA_J_J3H@Z
	?SeekCursorForItem@ImGuiListClipper@@QEAAXH@Z
	?SelectAll@ImGuiInputTextCallbackData@@QEAAXXZ
	?SelectAll@ImGuiInputTextState@@QEAAXXZ
	?Selectable@ImGui@@YA_NPEBDPEA_NHAEBUImVec2@@@Z
	?Selectable@ImGui@@YA_NPEBD_NHAEBUImVec2@@@Z
	?Separator@ImGui@@YAXXZ
	?SeparatorEx@ImGui@@YAXHM@Z
	?SeparatorText@ImGui@@YAXPEBD@Z
	?SeparatorTextEx@ImGui@@YAXIPEBD0M@Z
	?SetActiveID@ImGui@@YAXIPEAUImGuiWindow@@@Z
	?SetActiveIdUsingAllKeyboardKeys@ImGui@@YAXXZ
	?SetAllInt@ImGuiStorage@@QEAAXH@Z
	?SetAllocatorFunctions@ImGui@@YAXP6APEAX_KPEAX@ZP6AX11@Z1@Z
	?SetAppAcceptingEvents@ImGuiIO@@QEAAX_N@Z
	?SetArenaBasePtr@?$ImSpanAllocator@$05@@QEAAXPEAX@Z
	?SetBit@?$ImBitArray@$0JL@$0?CAA@@@QEAAXH@Z
	?SetBit@?$ImBitArray@$0JL@$0A@@@QEAAXH@Z
	?SetBit@ImFontGlyphRangesBuilder@@QEAAX_K@Z
	?SetBool@ImGuiStorage@@QEAAXI_N@Z
	?SetCircleTessellationMaxError@ImDrawListSharedData@@QEAAXM@Z
	?SetClipboardText@ImGui@@YAXPEBD@Z
	?SetColorEditOptions@ImGui@@YAXH@Z
	?SetColumnOffset@ImGui@@YAXHM@Z
	?SetColumnWidth@ImGui@@YAXHM@Z
	?SetCurrentChannel@ImDrawListSplitter@@QEAAXPEAUImDrawList@@H@Z
	?SetCurrentContext@ImGui@@YAXPEAUImGuiContext@@@Z
	?SetCurrentFont@ImGui@@YAXPEAUImFont@@MM@Z
	?SetCursorPos@ImGui@@YAXAEBUImVec2@@@Z
	?SetCursorPosX@ImGui@@YAXM@Z
	?SetCursorPosY@ImGui@@YAXM@Z
	?SetCursorScreenPos@ImGui@@YAXAEBUImVec2@@@Z
	?SetDragDropPayload@ImGui@@YA_NPEBDPEBX_KH@Z
	?SetFloat@ImGuiStorage@@QEAAXIM@Z
	?SetFocusID@ImGui@@YAXIPEAUImGuiWindow@@@Z
	?SetFontRasterizerDensity@ImGui@@YAXM@Z
	?SetHoveredID@ImGui@@YAXI@Z
	?SetInt@ImGuiStorage@@QEAAXIH@Z
	?SetItemDefaultFocus@ImGui@@YAXXZ
	?SetItemKeyOwner@ImGui@@YAXW4ImGuiKey@@@Z
	?SetItemKeyOwner@ImGui@@YAXW4ImGuiKey@@H@Z
	?SetItemSelected@ImGuiSelectionBasicStorage@@QEAAXI_N@Z
	?SetItemTooltip@ImGui@@YAXPEBDZZ
	?SetItemTooltipV@ImGui@@YAXPEBDPEAD@Z
	?SetKeyEventNativeData@ImGuiIO@@QEAAXW4ImGuiKey@@HHH@Z
	?SetKeyOwner@ImGui@@YAXW4ImGuiKey@@IH@Z
	?SetKeyOwnersForKeyChord@ImGui@@YAXHIH@Z
	?SetKeyboardFocusHere@ImGui@@YAXH@Z
	?SetLastItemData@ImGui@@YAXIHHAEBUImRect@@@Z
	?SetMouseCursor@ImGui@@YAXH@Z
	?SetNavCursorVisible@ImGui@@YAX_N@Z
	?SetNavCursorVisibleAfterMove@ImGui@@YAXXZ
	?SetNavFocusScope@ImGui@@YAXI@Z
	?SetNavID@ImGui@@YAXIW4ImGuiNavLayer@@IAEBUImRect@@@Z
	?SetNavWindow@ImGui@@YAXPEAUImGuiWindow@@@Z
	?SetNextFrameWantCaptureKeyboard@ImGui@@YAX_N@Z
	?SetNextFrameWantCaptureMouse@ImGui@@YAX_N@Z
	?SetNextItemAllowOverlap@ImGui@@YAXXZ
	?SetNextItemOpen@ImGui@@YAX_NH@Z
	?SetNextItemRefVal@ImGui@@YAXHPEAX@Z
	?SetNextItemSelectionUserData@ImGui@@YAX_J@Z
	?SetNextItemShortcut@ImGui@@YAXHH@Z
	?SetNextItemStorageID@ImGui@@YAXI@Z
	?SetNextItemWidth@ImGui@@YAXM@Z
	?SetNextWindowBgAlpha@ImGui@@YAXM@Z
	?SetNextWindowCollapsed@ImGui@@YAX_NH@Z
	?SetNextWindowContentSize@ImGui@@YAXAEBUImVec2@@@Z
	?SetNextWindowFocus@ImGui@@YAXXZ
	?SetNextWindowPos@ImGui@@YAXAEBUImVec2@@H0@Z
	?SetNextWindowRefreshPolicy@ImGui@@YAXH@Z
	?SetNextWindowScroll@ImGui@@YAXAEBUImVec2@@@Z
	?SetNextWindowSize@ImGui@@YAXAEBUImVec2@@H@Z
	?SetNextWindowSizeConstraints@ImGui@@YAXAEBUImVec2@@0P6AXPEAUImGuiSizeCallbackData@@@ZPEAX@Z
	?SetScrollFromPosX@ImGui@@YAXMM@Z
	?SetScrollFromPosX@ImGui@@YAXPEAUImGuiWindow@@MM@Z
	?SetScrollFromPosY@ImGui@@YAXMM@Z
	?SetScrollFromPosY@ImGui@@YAXPEAUImGuiWindow@@MM@Z
	?SetScrollHereX@ImGui@@YAXM@Z
	?SetScrollHereY@ImGui@@YAXM@Z
	?SetScrollX@ImGui@@YAXM@Z
	?SetScrollX@ImGui@@YAXPEAUImGuiWindow@@M@Z
	?SetScrollY@ImGui@@YAXM@Z
	?SetScrollY@ImGui@@YAXPEAUImGuiWindow@@M@Z
	?SetShortcutRouting@ImGui@@YA_NHHI@Z
	?SetStateStorage@ImGui@@YAXPEAUImGuiStorage@@@Z
	?SetStatus@ImTextureData@@QEAAXW4ImTextureStatus@@@Z
	?SetTabItemClosed@ImGui@@YAXPEBD@Z
	?SetTexID@ImTextureData@@QEAAX_K@Z
	?SetTooltip@ImGui@@YAXPEBDZZ
	?SetTooltipV@ImGui@@YAXPEBDPEAD@Z
	?SetVoidPtr@ImGuiStorage@@QEAAXIPEAX@Z
	?SetWindowClipRectBeforeSetChannel@ImGui@@YAXPEAUImGuiWindow@@AEBUImRect@@@Z
	?SetWindowCollapsed@ImGui@@YAXPEAUImGuiWindow@@_NH@Z
	?SetWindowCollapsed@ImGui@@YAXPEBD_NH@Z
	?SetWindowCollapsed@ImGui@@YAX_NH@Z
	?SetWindowFocus@ImGui@@YAXPEBD@Z
	?SetWindowFocus@ImGui@@YAXXZ
	?SetWindowHiddenAndSkipItemsForCurrentFrame@ImGui@@YAXPEAUImGuiWindow@@@Z
	?SetWindowHitTestHole@ImGui@@YAXPEAUImGuiWindow@@AEBUImVec2@@1@Z
	?SetWindowPos@ImGui@@YAXAEBUImVec2@@H@Z
	?SetWindowPos@ImGui@@YAXPEAUImGuiWindow@@AEBUImVec2@@H@Z
	?SetWindowPos@ImGui@@YAXPEBDAEBUImVec2@@H@Z
	?SetWindowSize@ImGui@@YAXAEBUImVec2@@H@Z
	?SetWindowSize@ImGui@@YAXPEAUImGuiWindow@@AEBUImVec2@@H@Z
	?SetWindowSize@ImGui@@YAXPEBDAEBUImVec2@@H@Z
	?SetWindowViewport@ImGui@@YAXPEAUImGuiWindow@@PEAUImGuiViewportP@@@Z
	?ShadeVertsLinearColorGradientKeepAlpha@ImGui@@YAXPEAUImDrawList@@HHUImVec2@@1II@Z
	?ShadeVertsLinearUV@ImGui@@YAXPEAUImDrawList@@HHAEBUImVec2@@111_N@Z
	?ShadeVertsTransformPos@ImGui@@YAXPEAUImDrawList@@HHAEBUImVec2@@MM1@Z
	?Shortcut@ImGui@@YA_NHH@Z
	?Shortcut@ImGui@@YA_NHHI@Z
	?Show@ExampleDualListBox@@QEAAXXZ
	?ShowAboutWindow@ImGui@@YAXPEA_N@Z
	?ShowDebugLogWindow@ImGui@@YAXPEA_N@Z
	?ShowDemoWindow@ImGui@@YAXPEA_N@Z
	?ShowFontAtlas@ImGui@@YAXPEAUImFontAtlas@@@Z
	?ShowFontSelector@ImGui@@YAXPEBD@Z
	?ShowIDStackToolWindow@ImGui@@YAXPEA_N@Z
	?ShowMetricsWindow@ImGui@@YAXPEA_N@Z
	?ShowStyleEditor@ImGui@@YAXPEAUImGuiStyle@@@Z
	?ShowStyleSelector@ImGui@@YA_NPEBD@Z
	?ShowUserGuide@ImGui@@YAXXZ
	?ShrinkWidths@ImGui@@YAXPEAUImGuiShrinkWidthItem@@HM@Z
	?Shutdown@@YAXXZ
	?Shutdown@ImGui@@YAXXZ
	?SliderAngle@ImGui@@YA_NPEBDPEAMMM0H@Z
	?SliderBehavior@ImGui@@YA_NAEBUImRect@@IHPEAXPEBX2PEBDHPEAU2@@Z
	?SliderFloat2@ImGui@@YA_NPEBDQEAMMM0H@Z
	?SliderFloat3@ImGui@@YA_NPEBDQEAMMM0H@Z
	?SliderFloat4@ImGui@@YA_NPEBDQEAMMM0H@Z
	?SliderFloat@ImGui@@YA_NPEBDPEAMMM0H@Z
	?SliderInt2@ImGui@@YA_NPEBDQEAHHH0H@Z
	?SliderInt3@ImGui@@YA_NPEBDQEAHHH0H@Z
	?SliderInt4@ImGui@@YA_NPEBDQEAHHH0H@Z
	?SliderInt@ImGui@@YA_NPEBDPEAHHH0H@Z
	?SliderScalar@ImGui@@YA_NPEBDHPEAXPEBX20H@Z
	?SliderScalarN@ImGui@@YA_NPEBDHPEAXHPEBX20H@Z
	?SmallButton@ImGui@@YA_NPEBD@Z
	?SortItems@ExampleDualListBox@@QEAAXH@Z
	?SortWithSortSpecs@ExampleAsset@@SAXPEAUImGuiTableSortSpecs@@PEAU1@H@Z
	?Spacing@ImGui@@YAXXZ
	?Split@ImDrawListSplitter@@QEAAXPEAUImDrawList@@H@Z
	?SplitterBehavior@ImGui@@YA_NAEBUImRect@@IW4ImGuiAxis@@PEAM2MMMMI@Z
	?StartMouseMovingWindow@ImGui@@YAXPEAUImGuiWindow@@@Z
	?Step@ImGuiListClipper@@QEAA_NXZ
	?Strdup@ExampleAppConsole@@SAPEADPEBD@Z
	?Stricmp@ExampleAppConsole@@SAHPEBD0@Z
	?Strnicmp@ExampleAppConsole@@SAHPEBD0H@Z
	?Strtrim@ExampleAppConsole@@SAXPEAD@Z
	?StyleColorsClassic@ImGui@@YAXPEAUImGuiStyle@@@Z
	?StyleColorsDark@ImGui@@YAXPEAUImGuiStyle@@@Z
	?StyleColorsLight@ImGui@@YAXPEAUImGuiStyle@@@Z
	?Swap@ImGuiSelectionBasicStorage@@QEAAXAEAU1@@Z
	?TabBarCloseTab@ImGui@@YAXPEAUImGuiTabBar@@PEAUImGuiTabItem@@@Z
	?TabBarFindTabByID@ImGui@@YAPEAUImGuiTabItem@@PEAUImGuiTabBar@@I@Z
	?TabBarFindTabByOrder@ImGui@@YAPEAUImGuiTabItem@@PEAUImGuiTabBar@@H@Z
	?TabBarGetCurrentTab@ImGui@@YAPEAUImGuiTabItem@@PEAUImGuiTabBar@@@Z
	?TabBarGetTabName@ImGui@@YAPEBDPEAUImGuiTabBar@@PEAUImGuiTabItem@@@Z
	?TabBarGetTabOrder@ImGui@@YAHPEAUImGuiTabBar@@PEAUImGuiTabItem@@@Z
	?TabBarProcessReorder@ImGui@@YA_NPEAUImGuiTabBar@@@Z
	?TabBarQueueFocus@ImGui@@YAXPEAUImGuiTabBar@@PEAUImGuiTabItem@@@Z
	?TabBarQueueFocus@ImGui@@YAXPEAUImGuiTabBar@@PEBD@Z
	?TabBarQueueReorder@ImGui@@YAXPEAUImGuiTabBar@@PEAUImGuiTabItem@@H@Z
	?TabBarQueueReorderFromMousePos@ImGui@@YAXPEAUImGuiTabBar@@PEAUImGuiTabItem@@UImVec2@@@Z
	?TabBarRemoveTab@ImGui@@YAXPEAUImGuiTabBar@@I@Z
	?TabItemBackground@ImGui@@YAXPEAUImDrawList@@AEBUImRect@@HI@Z
	?TabItemButton@ImGui@@YA_NPEBDH@Z
	?TabItemCalcSize@ImGui@@YA?AUImVec2@@PEAUImGuiWindow@@@Z
	?TabItemCalcSize@ImGui@@YA?AUImVec2@@PEBD_N@Z
	?TabItemEx@ImGui@@YA_NPEAUImGuiTabBar@@PEBDPEA_NHPEAUImGuiWindow@@@Z
	?TabItemLabelAndCloseButton@ImGui@@YAXPEAUImDrawList@@AEBUImRect@@HUImVec2@@PEBDII_NPEA_N5@Z
	?TabItemSpacing@ImGui@@YAXPEBDHM@Z
	?TableAngledHeadersRow@ImGui@@YAXXZ
	?TableAngledHeadersRowEx@ImGui@@YAXIMMPEBUImGuiTableHeaderData@@H@Z
	?TableBeginApplyRequests@ImGui@@YAXPEAUImGuiTable@@@Z
	?TableBeginCell@ImGui@@YAXPEAUImGuiTable@@H@Z
	?TableBeginContextMenuPopup@ImGui@@YA_NPEAUImGuiTable@@@Z
	?TableBeginInitMemory@ImGui@@YAXPEAUImGuiTable@@H@Z
	?TableBeginRow@ImGui@@YAXPEAUImGuiTable@@@Z
	?TableCalcMaxColumnWidth@ImGui@@YAMPEBUImGuiTable@@H@Z
	?TableDrawBorders@ImGui@@YAXPEAUImGuiTable@@@Z
	?TableDrawDefaultContextMenu@ImGui@@YAXPEAUImGuiTable@@H@Z
	?TableEndCell@ImGui@@YAXPEAUImGuiTable@@@Z
	?TableEndRow@ImGui@@YAXPEAUImGuiTable@@@Z
	?TableFindByID@ImGui@@YAPEAUImGuiTable@@I@Z
	?TableFixColumnSortDirection@ImGui@@YAXPEAUImGuiTable@@PEAUImGuiTableColumn@@@Z
	?TableFixFlags@@YAHHPEAUImGuiWindow@@@Z
	?TableGcCompactSettings@ImGui@@YAXXZ
	?TableGcCompactTransientBuffers@ImGui@@YAXPEAUImGuiTable@@@Z
	?TableGcCompactTransientBuffers@ImGui@@YAXPEAUImGuiTableTempData@@@Z
	?TableGetBoundSettings@ImGui@@YAPEAUImGuiTableSettings@@PEAUImGuiTable@@@Z
	?TableGetCellBgRect@ImGui@@YA?AUImRect@@PEBUImGuiTable@@H@Z
	?TableGetColumnCount@ImGui@@YAHXZ
	?TableGetColumnFlags@ImGui@@YAHH@Z
	?TableGetColumnIndex@ImGui@@YAHXZ
	?TableGetColumnName@ImGui@@YAPEBDH@Z
	?TableGetColumnName@ImGui@@YAPEBDPEBUImGuiTable@@H@Z
	?TableGetColumnNextSortDirection@ImGui@@YA?AW4ImGuiSortDirection@@PEAUImGuiTableColumn@@@Z
	?TableGetColumnResizeID@ImGui@@YAIPEAUImGuiTable@@HH@Z
	?TableGetColumnWidthAuto@ImGui@@YAMPEAUImGuiTable@@PEAUImGuiTableColumn@@@Z
	?TableGetHeaderAngledMaxLabelWidth@ImGui@@YAMXZ
	?TableGetHeaderRowHeight@ImGui@@YAMXZ
	?TableGetHoveredColumn@ImGui@@YAHXZ
	?TableGetHoveredRow@ImGui@@YAHXZ
	?TableGetInstanceData@ImGui@@YAPEAUImGuiTableInstanceData@@PEAUImGuiTable@@H@Z
	?TableGetInstanceID@ImGui@@YAIPEAUImGuiTable@@H@Z
	?TableGetRowIndex@ImGui@@YAHXZ
	?TableGetSortSpecs@ImGui@@YAPEAUImGuiTableSortSpecs@@XZ
	?TableHeader@ImGui@@YAXPEBD@Z
	?TableHeadersRow@ImGui@@YAXXZ
	?TableLoadSettings@ImGui@@YAXPEAUImGuiTable@@@Z
	?TableMergeDrawChannels@ImGui@@YAXPEAUImGuiTable@@@Z
	?TableNextColumn@ImGui@@YA_NXZ
	?TableNextRow@ImGui@@YAXHM@Z
	?TableOpenContextMenu@ImGui@@YAXH@Z
	?TablePopBackgroundChannel@ImGui@@YAXXZ
	?TablePopColumnChannel@ImGui@@YAXXZ
	?TablePushBackgroundChannel@ImGui@@YAXXZ
	?TablePushColumnChannel@ImGui@@YAXH@Z
	?TableRemove@ImGui@@YAXPEAUImGuiTable@@@Z
	?TableResetSettings@ImGui@@YAXPEAUImGuiTable@@@Z
	?TableSaveSettings@ImGui@@YAXPEAUImGuiTable@@@Z
	?TableSetBgColor@ImGui@@YAXHIH@Z
	?TableSetColumnEnabled@ImGui@@YAXH_N@Z
	?TableSetColumnIndex@ImGui@@YA_NH@Z
	?TableSetColumnSortDirection@ImGui@@YAXHW4ImGuiSortDirection@@_N@Z
	?TableSetColumnWidth@ImGui@@YAXHM@Z
	?TableSetColumnWidthAutoAll@ImGui@@YAXPEAUImGuiTable@@@Z
	?TableSetColumnWidthAutoSingle@ImGui@@YAXPEAUImGuiTable@@H@Z
	?TableSettingsAddSettingsHandler@ImGui@@YAXXZ
	?TableSettingsCreate@ImGui@@YAPEAUImGuiTableSettings@@IH@Z
	?TableSettingsFindByID@ImGui@@YAPEAUImGuiTableSettings@@I@Z
	?TableSetupColumn@ImGui@@YAXPEBDHMI@Z
	?TableSetupDrawChannels@ImGui@@YAXPEAUImGuiTable@@@Z
	?TableSetupScrollFreeze@ImGui@@YAXHH@Z
	?TableSortSpecsBuild@ImGui@@YAXPEAUImGuiTable@@@Z
	?TableSortSpecsSanitize@ImGui@@YAXPEAUImGuiTable@@@Z
	?TableUpdateBorders@ImGui@@YAXPEAUImGuiTable@@@Z
	?TableUpdateColumnsWeightFromWidth@ImGui@@YAXPEAUImGuiTable@@@Z
	?TableUpdateLayout@ImGui@@YAXPEAUImGuiTable@@@Z
	?TeleportMousePos@ImGui@@YAXAEBUImVec2@@@Z
	?TempInputIsActive@ImGui@@YA_NI@Z
	?TempInputScalar@ImGui@@YA_NAEBUImRect@@IPEBDHPEAX1PEBX3@Z
	?TempInputText@ImGui@@YA_NAEBUImRect@@IPEBDPEADHH@Z
	?TestBit@?$ImBitArray@$0JL@$0?CAA@@@QEBA_NH@Z
	?TestBit@?$ImBitArray@$0JL@$0A@@@QEBA_NH@Z
	?TestKeyOwner@ImGui@@YA_NW4ImGuiKey@@I@Z
	?TestShortcutRouting@ImGui@@YA_NHI@Z
	?Text@ImGui@@YAXPEBDZZ
	?TextAligned@ImGui@@YAXMMPEBDZZ
	?TextAlignedV@ImGui@@YAXMMPEBDPEAD@Z
	?TextColored@ImGui@@YAXAEBUImVec4@@PEBDZZ
	?TextColoredV@ImGui@@YAXAEBUImVec4@@PEBDPEAD@Z
	?TextDisabled@ImGui@@YAXPEBDZZ
	?TextDisabledV@ImGui@@YAXPEBDPEAD@Z
	?TextEditCallback@ExampleAppConsole@@QEAAHPEAUImGuiInputTextCallbackData@@@Z
	?TextEditCallbackStub@ExampleAppConsole@@SAHPEAUImGuiInputTextCallbackData@@@Z
	?TextEx@ImGui@@YAXPEBD0H@Z
	?TextLink@ImGui@@YA_NPEBD@Z
	?TextLinkOpenURL@ImGui@@YA_NPEBD0@Z
	?TextUnformatted@ImGui@@YAXPEBD0@Z
	?TextV@ImGui@@YAXPEBDPEAD@Z
	?TextWrapped@ImGui@@YAXPEBDZZ
	?TextWrappedV@ImGui@@YAXPEBDPEAD@Z
	?TitleBarRect@ImGuiWindow@@QEBA?AUImRect@@XZ
	?ToVec4@ImRect@@QEBA?AUImVec4@@XZ
	?Translate@ImRect@@QEAAXAEBUImVec2@@@Z
	?TranslateX@ImRect@@QEAAXM@Z
	?TranslateY@ImRect@@QEAAXM@Z
	?TreeNode@ImGui@@YA_NPEBD0ZZ
	?TreeNode@ImGui@@YA_NPEBD@Z
	?TreeNode@ImGui@@YA_NPEBXPEBDZZ
	?TreeNodeBehavior@ImGui@@YA_NIHPEBD0@Z
	?TreeNodeDrawLineToChildNode@ImGui@@YAXAEBUImVec2@@@Z
	?TreeNodeDrawLineToTreePop@ImGui@@YAXPEBUImGuiTreeNodeStackData@@@Z
	?TreeNodeEx@ImGui@@YA_NPEBDH0ZZ
	?TreeNodeEx@ImGui@@YA_NPEBDH@Z
	?TreeNodeEx@ImGui@@YA_NPEBXHPEBDZZ
	?TreeNodeExV@ImGui@@YA_NPEBDH0PEAD@Z
	?TreeNodeExV@ImGui@@YA_NPEBXHPEBDPEAD@Z
	?TreeNodeGetOpen@ImGui@@YA_NI@Z
	?TreeNodeSetOpen@ImGui@@YAXI_N@Z
	?TreeNodeUpdateNextOpen@ImGui@@YA_NIH@Z
	?TreeNodeV@ImGui@@YA_NPEBD0PEAD@Z
	?TreeNodeV@ImGui@@YA_NPEBXPEBDPEAD@Z
	?TreePop@ImGui@@YAXXZ
	?TreePush@ImGui@@YAXPEBD@Z
	?TreePush@ImGui@@YAXPEBX@Z
	?TreePushOverrideID@ImGui@@YAXI@Z
	?TryGetMapData@?$ImPool@UImGuiMultiSelectState@@@@QEAAPEAUImGuiMultiSelectState@@H@Z
	?TryGetMapData@?$ImPool@UImGuiTabBar@@@@QEAAPEAUImGuiTabBar@@H@Z
	?TryGetMapData@?$ImPool@UImGuiTable@@@@QEAAPEAUImGuiTable@@H@Z
	?TypingSelectFindBestLeadingMatch@ImGui@@YAHPEAUImGuiTypingSelectRequest@@HP6APEBDPEAXH@Z1@Z
	?TypingSelectFindMatch@ImGui@@YAHPEAUImGuiTypingSelectRequest@@HP6APEBDPEAXH@Z1H@Z
	?TypingSelectFindNextSingleCharMatch@ImGui@@YAHPEAUImGuiTypingSelectRequest@@HP6APEBDPEAXH@Z1H@Z
	?Unindent@ImGui@@YAXM@Z
	?UninitializeBuffer@@YAXXZ
	?Unlink@ImTriangulatorNode@@QEAAXXZ
	?UnregisterFontAtlas@ImGui@@YAXPEAUImFontAtlas@@@Z
	?UnregisterUserTexture@ImGui@@YAXPEAUImTextureData@@@Z
	?Update@ImGuiMenuColumns@@QEAAXM_N@Z
	?UpdateCurrentFontSize@ImGui@@YAXM@Z
	?UpdateHoveredWindowAndCaptureFlags@ImGui@@YAXAEBUImVec2@@@Z
	?UpdateInputEvents@ImGui@@YAX_N@Z
	?UpdateLayoutSizes@ExampleAssetsBrowser@@QEAAXM@Z
	?UpdateMouseMovingWindowEndFrame@ImGui@@YAXXZ
	?UpdateMouseMovingWindowNewFrame@ImGui@@YAXXZ
	?UpdateWindowParentAndRootLinks@ImGui@@YAXPEAUImGuiWindow@@H0@Z
	?UpdateWindowSkipRefresh@ImGui@@YAXPEAUImGuiWindow@@@Z
	?UpdateWorkRect@ImGuiViewportP@@QEAAXXZ
	?VSliderFloat@ImGui@@YA_NPEBDAEBUImVec2@@PEAMMM0H@Z
	?VSliderInt@ImGui@@YA_NPEBDAEBUImVec2@@PEAHHH0H@Z
	?VSliderScalar@ImGui@@YA_NPEBDAEBUImVec2@@HPEAXPEBX30H@Z
	?Value@ImGui@@YAXPEBDH@Z
	?Value@ImGui@@YAXPEBDI@Z
	?Value@ImGui@@YAXPEBDM0@Z
	?Value@ImGui@@YAXPEBD_N@Z
	?WindowPosAbsToRel@ImGui@@YA?AUImVec2@@PEAUImGuiWindow@@AEBU2@@Z
	?WindowPosRelToAbs@ImGui@@YA?AUImVec2@@PEAUImGuiWindow@@AEBU2@@Z
	?WindowRectAbsToRel@ImGui@@YA?AUImRect@@PEAUImGuiWindow@@AEBU2@@Z
	?WindowRectRelToAbs@ImGui@@YA?AUImRect@@PEAUImGuiWindow@@AEBU2@@Z
	?_Adjust_manually_vector_aligned@std@@YAXAEAPEAXAEA_K@Z
	?_Allocate@_Default_allocate_traits@std@@SAPEAX_K@Z
	?_CalcCircleAutoSegmentCount@ImDrawList@@QEBAHM@Z
	?_Calculate_growth@?$basic_string@DU?$char_traits@D@std@@V?$allocator@D@2@@std@@AEBA_K_K@Z
	?_Calculate_growth@?$basic_string@DU?$char_traits@D@std@@V?$allocator@D@2@@std@@CA_K_K00@Z
	?_ClearFreeMemory@ImDrawList@@QEAAXXZ
	?_Deallocate_for_capacity@?$basic_string@DU?$char_traits@D@std@@V?$allocator@D@2@@std@@CAXAEAV?$allocator@D@2@QEAD_K@Z
	?_Eos@?$basic_string@DU?$char_traits@D@std@@V?$allocator@D@2@@std@@AEAAX_K@Z
	?_Get_first@?$_Compressed_pair@V?$allocator@D@std@@V?$_String_val@U?$_Simple_types@D@std@@@2@$00@std@@QEAAAEAV?$allocator@D@2@XZ
	?_Get_first@?$_Compressed_pair@V?$allocator@D@std@@V?$_String_val@U?$_Simple_types@D@std@@@2@$00@std@@QEBAAEBV?$allocator@D@2@XZ
	?_Getal@?$basic_string@DU?$char_traits@D@std@@V?$allocator@D@2@@std@@AEAAAEAV?$allocator@D@2@XZ
	?_Getal@?$basic_string@DU?$char_traits@D@std@@V?$allocator@D@2@@std@@AEBAAEBV?$allocator@D@2@XZ
	?_Large_mode_engaged@?$_String_val@U?$_Simple_types@D@std@@@std@@QEBA_NXZ
	?_Myptr@?$_String_val@U?$_Simple_types@D@std@@@std@@QEAAPEADXZ
	?_Myptr@?$_String_val@U?$_Simple_types@D@std@@@std@@QEBAPEBDXZ
	?_OnChangedClipRect@ImDrawList@@QEAAXXZ
	?_OnChangedTexture@ImDrawList@@QEAAXXZ
	?_OnChangedVtxOffset@ImDrawList@@QEAAXXZ
	?_Orphan_all@_Container_base12@std@@QEAAXXZ
	?_Orphan_all_locked_v3@_Container_base12@std@@AEAAXXZ
	?_Orphan_all_unlocked_v3@_Container_base12@std@@AEAAXXZ
	?_PathArcToFastEx@ImDrawList@@QEAAXAEBUImVec2@@MHHH@Z
	?_PathArcToN@ImDrawList@@QEAAXAEBUImVec2@@MMMH@Z
	?_PopUnusedDrawCmd@ImDrawList@@QEAAXXZ
	?_ResetForNewFrame@ImDrawList@@QEAAXXZ
	?_SetDrawListSharedData@ImDrawList@@QEAAXPEAUImDrawListSharedData@@@Z
	?_SetTexture@ImDrawList@@QEAAXUImTextureRef@@@Z
	?_Throw_bad_array_new_length@std@@YAXXZ
	?_TryMergeDrawCmds@ImDrawList@@QEAAXXZ
	?_Xlen_string@std@@YAXXZ
	?__empty_global_delete@@YAXPEAX@Z
	?__empty_global_delete@@YAXPEAXW4align_val_t@std@@@Z
	?__empty_global_delete@@YAXPEAX_K@Z
	?__empty_global_delete@@YAXPEAX_KW4align_val_t@std@@@Z
	?_grow_capacity@?$ImVector@D@@QEBAHH@Z
	?_grow_capacity@?$ImVector@E@@QEBAHH@Z
	?_grow_capacity@?$ImVector@G@@QEBAHH@Z
	?_grow_capacity@?$ImVector@H@@QEBAHH@Z
	?_grow_capacity@?$ImVector@I@@QEBAHH@Z
	?_grow_capacity@?$ImVector@M@@QEBAHH@Z
	?_grow_capacity@?$ImVector@PEAD@@QEBAHH@Z
	?_grow_capacity@?$ImVector@PEAUExampleTreeNode@@@@QEBAHH@Z
	?_grow_capacity@?$ImVector@PEAUImDrawList@@@@QEBAHH@Z
	?_grow_capacity@?$ImVector@PEAUImDrawListSharedData@@@@QEBAHH@Z
	?_grow_capacity@?$ImVector@PEAUImFont@@@@QEBAHH@Z
	?_grow_capacity@?$ImVector@PEAUImFontAtlas@@@@QEBAHH@Z
	?_grow_capacity@?$ImVector@PEAUImFontBaked@@@@QEBAHH@Z
	?_grow_capacity@?$ImVector@PEAUImFontConfig@@@@QEBAHH@Z
	?_grow_capacity@?$ImVector@PEAUImGuiViewportP@@@@QEBAHH@Z
	?_grow_capacity@?$ImVector@PEAUImGuiWindow@@@@QEBAHH@Z
	?_grow_capacity@?$ImVector@PEAUImTextureData@@@@QEBAHH@Z
	?_grow_capacity@?$ImVector@PEAUMyDocument@@@@QEBAHH@Z
	?_grow_capacity@?$ImVector@PEBD@@QEBAHH@Z
	?_grow_capacity@?$ImVector@UExampleAsset@@@@QEBAHH@Z
	?_grow_capacity@?$ImVector@UImDrawChannel@@@@QEBAHH@Z
	?_grow_capacity@?$ImVector@UImDrawCmd@@@@QEBAHH@Z
	?_grow_capacity@?$ImVector@UImDrawVert@@@@QEBAHH@Z
	?_grow_capacity@?$ImVector@UImFontAtlasRectEntry@@@@QEBAHH@Z
	?_grow_capacity@?$ImVector@UImFontConfig@@@@QEBAHH@Z
	?_grow_capacity@?$ImVector@UImFontGlyph@@@@QEBAHH@Z
	?_grow_capacity@?$ImVector@UImFontStackData@@@@QEBAHH@Z
	?_grow_capacity@?$ImVector@UImGuiColorMod@@@@QEBAHH@Z
	?_grow_capacity@?$ImVector@UImGuiContextHook@@@@QEBAHH@Z
	?_grow_capacity@?$ImVector@UImGuiFocusScopeData@@@@QEBAHH@Z
	?_grow_capacity@?$ImVector@UImGuiGroupData@@@@QEBAHH@Z
	?_grow_capacity@?$ImVector@UImGuiInputEvent@@@@QEBAHH@Z
	?_grow_capacity@?$ImVector@UImGuiKeyRoutingData@@@@QEBAHH@Z
	?_grow_capacity@?$ImVector@UImGuiListClipperData@@@@QEBAHH@Z
	?_grow_capacity@?$ImVector@UImGuiListClipperRange@@@@QEBAHH@Z
	?_grow_capacity@?$ImVector@UImGuiMultiSelectState@@@@QEBAHH@Z
	?_grow_capacity@?$ImVector@UImGuiMultiSelectTempData@@@@QEBAHH@Z
	?_grow_capacity@?$ImVector@UImGuiOldColumnData@@@@QEBAHH@Z
	?_grow_capacity@?$ImVector@UImGuiOldColumns@@@@QEBAHH@Z
	?_grow_capacity@?$ImVector@UImGuiPopupData@@@@QEBAHH@Z
	?_grow_capacity@?$ImVector@UImGuiPtrOrIndex@@@@QEBAHH@Z
	?_grow_capacity@?$ImVector@UImGuiSelectionRequest@@@@QEBAHH@Z
	?_grow_capacity@?$ImVector@UImGuiSettingsHandler@@@@QEBAHH@Z
	?_grow_capacity@?$ImVector@UImGuiShrinkWidthItem@@@@QEBAHH@Z
	?_grow_capacity@?$ImVector@UImGuiStackLevelInfo@@@@QEBAHH@Z
	?_grow_capacity@?$ImVector@UImGuiStoragePair@@@@QEBAHH@Z
	?_grow_capacity@?$ImVector@UImGuiStyleMod@@@@QEBAHH@Z
	?_grow_capacity@?$ImVector@UImGuiTabBar@@@@QEBAHH@Z
	?_grow_capacity@?$ImVector@UImGuiTabItem@@@@QEBAHH@Z
	?_grow_capacity@?$ImVector@UImGuiTable@@@@QEBAHH@Z
	?_grow_capacity@?$ImVector@UImGuiTableColumnSortSpecs@@@@QEBAHH@Z
	?_grow_capacity@?$ImVector@UImGuiTableHeaderData@@@@QEBAHH@Z
	?_grow_capacity@?$ImVector@UImGuiTableInstanceData@@@@QEBAHH@Z
	?_grow_capacity@?$ImVector@UImGuiTableTempData@@@@QEBAHH@Z
	?_grow_capacity@?$ImVector@UImGuiTextRange@ImGuiTextFilter@@@@QEBAHH@Z
	?_grow_capacity@?$ImVector@UImGuiTreeNodeStackData@@@@QEBAHH@Z
	?_grow_capacity@?$ImVector@UImGuiWindowStackData@@@@QEBAHH@Z
	?_grow_capacity@?$ImVector@UImTextureRect@@@@QEBAHH@Z
	?_grow_capacity@?$ImVector@UImTextureRef@@@@QEBAHH@Z
	?_grow_capacity@?$ImVector@UImVec2@@@@QEBAHH@Z
	?_grow_capacity@?$ImVector@UImVec4@@@@QEBAHH@Z
	?_grow_capacity@?$ImVector@UMyDocument@@@@QEBAHH@Z
	?_grow_capacity@?$ImVector@Ustbrp_node@@@@QEBAHH@Z
	?_grow_capacity@?$ImVector@_W@@QEBAHH@Z
	?alloc_chunk@?$ImChunkStream@UImGuiTableSettings@@@@QEAAPEAUImGuiTableSettings@@_K@Z
	?alloc_chunk@?$ImChunkStream@UImGuiWindowSettings@@@@QEAAPEAUImGuiWindowSettings@@_K@Z
	?allocate@?$allocator@D@std@@QEAAPEAD_K@Z
	?append@?$basic_string@DU?$char_traits@D@std@@V?$allocator@D@2@@std@@QEAAAEAV12@_KD@Z
	?append@ImGuiTextBuffer@@QEAAXPEBD0@Z
	?append@ImGuiTextIndex@@QEAAXPEBDHH@Z
	?appendf@ImGuiTextBuffer@@QEAAXPEBDZZ
	?appendfv@ImGuiTextBuffer@@QEAAXPEBDPEAD@Z
	?assign@?$_Narrow_char_traits@DH@std@@SAPEADQEAD_KD@Z
	?assign@?$_Narrow_char_traits@DH@std@@SAXAEADAEBD@Z
	?back@?$ImVector@D@@QEBAAEBDXZ
	?back@?$ImVector@H@@QEAAAEAHXZ
	?back@?$ImVector@I@@QEAAAEAIXZ
	?back@?$ImVector@M@@QEAAAEAMXZ
	?back@?$ImVector@PEAUImFont@@@@QEAAAEAPEAUImFont@@XZ
	?back@?$ImVector@PEAUImGuiWindow@@@@QEAAAEAPEAUImGuiWindow@@XZ
	?back@?$ImVector@UImDrawCmd@@@@QEAAAEAUImDrawCmd@@XZ
	?back@?$ImVector@UImDrawCmd@@@@QEBAAEBUImDrawCmd@@XZ
	?back@?$ImVector@UImFontConfig@@@@QEAAAEAUImFontConfig@@XZ
	?back@?$ImVector@UImFontStackData@@@@QEAAAEAUImFontStackData@@XZ
	?back@?$ImVector@UImGuiColorMod@@@@QEAAAEAUImGuiColorMod@@XZ
	?back@?$ImVector@UImGuiContextHook@@@@QEAAAEAUImGuiContextHook@@XZ
	?back@?$ImVector@UImGuiFocusScopeData@@@@QEAAAEAUImGuiFocusScopeData@@XZ
	?back@?$ImVector@UImGuiGroupData@@@@QEAAAEAUImGuiGroupData@@XZ
	?back@?$ImVector@UImGuiOldColumns@@@@QEAAAEAUImGuiOldColumns@@XZ
	?back@?$ImVector@UImGuiPopupData@@@@QEAAAEAUImGuiPopupData@@XZ
	?back@?$ImVector@UImGuiPtrOrIndex@@@@QEAAAEAUImGuiPtrOrIndex@@XZ
	?back@?$ImVector@UImGuiStyleMod@@@@QEAAAEAUImGuiStyleMod@@XZ
	?back@?$ImVector@UImGuiTabItem@@@@QEAAAEAUImGuiTabItem@@XZ
	?back@?$ImVector@UImGuiWindowStackData@@@@QEAAAEAUImGuiWindowStackData@@XZ
	?back@?$ImVector@UImTextureRef@@@@QEAAAEAUImTextureRef@@XZ
	?back@?$ImVector@UImVec2@@@@QEAAAEAUImVec2@@XZ
	?back@?$ImVector@UImVec4@@@@QEAAAEAUImVec4@@XZ
	?begin@?$ImChunkStream@UImGuiTableSettings@@@@QEAAPEAUImGuiTableSettings@@XZ
	?begin@?$ImChunkStream@UImGuiWindowSettings@@@@QEAAPEAUImGuiWindowSettings@@XZ
	?begin@?$ImVector@D@@QEAAPEADXZ
	?begin@?$ImVector@G@@QEAAPEAGXZ
	?begin@?$ImVector@I@@QEAAPEAIXZ
	?begin@?$ImVector@PEAD@@QEAAPEAPEADXZ
	?begin@?$ImVector@PEAUExampleTreeNode@@@@QEAAPEAPEAUExampleTreeNode@@XZ
	?begin@?$ImVector@PEAUImDrawList@@@@QEAAPEAPEAUImDrawList@@XZ
	?begin@?$ImVector@PEAUImDrawListSharedData@@@@QEAAPEAPEAUImDrawListSharedData@@XZ
	?begin@?$ImVector@PEAUImFont@@@@QEAAPEAPEAUImFont@@XZ
	?begin@?$ImVector@PEAUImFontAtlas@@@@QEAAPEAPEAUImFontAtlas@@XZ
	?begin@?$ImVector@PEAUImFontBaked@@@@QEAAPEAPEAUImFontBaked@@XZ
	?begin@?$ImVector@PEAUImFontConfig@@@@QEAAPEAPEAUImFontConfig@@XZ
	?begin@?$ImVector@PEAUImGuiViewportP@@@@QEAAPEAPEAUImGuiViewportP@@XZ
	?begin@?$ImVector@PEAUImGuiWindow@@@@QEAAPEAPEAUImGuiWindow@@XZ
	?begin@?$ImVector@PEAUImTextureData@@@@QEAAPEAPEAUImTextureData@@XZ
	?begin@?$ImVector@PEAUMyDocument@@@@QEAAPEAPEAUMyDocument@@XZ
	?begin@?$ImVector@UImDrawCmd@@@@QEAAPEAUImDrawCmd@@XZ
	?begin@?$ImVector@UImDrawCmd@@@@QEBAPEBUImDrawCmd@@XZ
	?begin@?$ImVector@UImFontAtlasRectEntry@@@@QEAAPEAUImFontAtlasRectEntry@@XZ
	?begin@?$ImVector@UImFontConfig@@@@QEAAPEAUImFontConfig@@XZ
	?begin@?$ImVector@UImFontGlyph@@@@QEAAPEAUImFontGlyph@@XZ
	?begin@?$ImVector@UImFontStackData@@@@QEAAPEAUImFontStackData@@XZ
	?begin@?$ImVector@UImGuiContextHook@@@@QEAAPEAUImGuiContextHook@@XZ
	?begin@?$ImVector@UImGuiListClipperRange@@@@QEAAPEAUImGuiListClipperRange@@XZ
	?begin@?$ImVector@UImGuiOldColumnData@@@@QEAAPEAUImGuiOldColumnData@@XZ
	?begin@?$ImVector@UImGuiOldColumns@@@@QEAAPEAUImGuiOldColumns@@XZ
	?begin@?$ImVector@UImGuiPopupData@@@@QEAAPEAUImGuiPopupData@@XZ
	?begin@?$ImVector@UImGuiSelectionRequest@@@@QEAAPEAUImGuiSelectionRequest@@XZ
	?begin@?$ImVector@UImGuiSelectionRequest@@@@QEBAPEBUImGuiSelectionRequest@@XZ
	?begin@?$ImVector@UImGuiSettingsHandler@@@@QEAAPEAUImGuiSettingsHandler@@XZ
	?begin@?$ImVector@UImGuiStoragePair@@@@QEAAPEAUImGuiStoragePair@@XZ
	?begin@?$ImVector@UImGuiTableTempData@@@@QEAAPEAUImGuiTableTempData@@XZ
	?begin@?$ImVector@UImGuiTextRange@ImGuiTextFilter@@@@QEAAPEAUImGuiTextRange@ImGuiTextFilter@@XZ
	?begin@?$ImVector@UImGuiTextRange@ImGuiTextFilter@@@@QEBAPEBUImGuiTextRange@ImGuiTextFilter@@XZ
	?begin@?$ImVector@UImTextureRect@@@@QEAAPEAUImTextureRect@@XZ
	?begin@?$ImVector@UImTextureRef@@@@QEAAPEAUImTextureRef@@XZ
	?begin@?$ImVector@UMyDocument@@@@QEAAPEAUMyDocument@@XZ
	?begin@ImGuiTextBuffer@@QEBAPEBDXZ
	?c_str@?$basic_string@DU?$char_traits@D@std@@V?$allocator@D@2@@std@@QEBAPEBDXZ
	?c_str@ImGuiTextBuffer@@QEBAPEBDXZ
	?capacity@?$ImVector@D@@QEBAHXZ
	?capacity@?$basic_string@DU?$char_traits@D@std@@V?$allocator@D@2@@std@@QEBA_KXZ
	?chunk_size@?$ImChunkStream@UImGuiTableSettings@@@@QEAAHPEBUImGuiTableSettings@@@Z
	?chunk_size@?$ImChunkStream@UImGuiWindowSettings@@@@QEAAHPEBUImGuiWindowSettings@@@Z
	?clear@?$ImChunkStream@UImGuiTableSettings@@@@QEAAXXZ
	?clear@?$ImChunkStream@UImGuiWindowSettings@@@@QEAAXXZ
	?clear@?$ImVector@D@@QEAAXXZ
	?clear@?$ImVector@E@@QEAAXXZ
	?clear@?$ImVector@G@@QEAAXXZ
	?clear@?$ImVector@H@@QEAAXXZ
	?clear@?$ImVector@I@@QEAAXXZ
	?clear@?$ImVector@M@@QEAAXXZ
	?clear@?$ImVector@PEAD@@QEAAXXZ
	?clear@?$ImVector@PEAUImFont@@@@QEAAXXZ
	?clear@?$ImVector@PEAUImFontConfig@@@@QEAAXXZ
	?clear@?$ImVector@PEAUImGuiViewportP@@@@QEAAXXZ
	?clear@?$ImVector@PEAUImGuiWindow@@@@QEAAXXZ
	?clear@?$ImVector@PEAUImTextureData@@@@QEAAXXZ
	?clear@?$ImVector@PEAUMyDocument@@@@QEAAXXZ
	?clear@?$ImVector@UExampleAsset@@@@QEAAXXZ
	?clear@?$ImVector@UImDrawChannel@@@@QEAAXXZ
	?clear@?$ImVector@UImDrawCmd@@@@QEAAXXZ
	?clear@?$ImVector@UImDrawVert@@@@QEAAXXZ
	?clear@?$ImVector@UImFontAtlasRectEntry@@@@QEAAXXZ
	?clear@?$ImVector@UImFontConfig@@@@QEAAXXZ
	?clear@?$ImVector@UImFontGlyph@@@@QEAAXXZ
	?clear@?$ImVector@UImFontStackData@@@@QEAAXXZ
	?clear@?$ImVector@UImGuiColorMod@@@@QEAAXXZ
	?clear@?$ImVector@UImGuiGroupData@@@@QEAAXXZ
	?clear@?$ImVector@UImGuiInputEvent@@@@QEAAXXZ
	?clear@?$ImVector@UImGuiKeyRoutingData@@@@QEAAXXZ
	?clear@?$ImVector@UImGuiListClipperData@@@@QEAAXXZ
	?clear@?$ImVector@UImGuiMultiSelectState@@@@QEAAXXZ
	?clear@?$ImVector@UImGuiMultiSelectTempData@@@@QEAAXXZ
	?clear@?$ImVector@UImGuiOldColumns@@@@QEAAXXZ
	?clear@?$ImVector@UImGuiPopupData@@@@QEAAXXZ
	?clear@?$ImVector@UImGuiPtrOrIndex@@@@QEAAXXZ
	?clear@?$ImVector@UImGuiSettingsHandler@@@@QEAAXXZ
	?clear@?$ImVector@UImGuiShrinkWidthItem@@@@QEAAXXZ
	?clear@?$ImVector@UImGuiStoragePair@@@@QEAAXXZ
	?clear@?$ImVector@UImGuiStyleMod@@@@QEAAXXZ
	?clear@?$ImVector@UImGuiTabBar@@@@QEAAXXZ
	?clear@?$ImVector@UImGuiTable@@@@QEAAXXZ
	?clear@?$ImVector@UImGuiTableColumnSortSpecs@@@@QEAAXXZ
	?clear@?$ImVector@UImGuiTableTempData@@@@QEAAXXZ
	?clear@?$ImVector@UImGuiTreeNodeStackData@@@@QEAAXXZ
	?clear@?$ImVector@UImGuiWindowStackData@@@@QEAAXXZ
	?clear@?$ImVector@UImTextureRef@@@@QEAAXXZ
	?clear@?$ImVector@UImVec2@@@@QEAAXXZ
	?clear@?$ImVector@UImVec4@@@@QEAAXXZ
	?clear@ImGuiTextBuffer@@QEAAXXZ
	?clear@ImGuiTextIndex@@QEAAXXZ
	?clear_delete@?$ImVector@PEAUImFont@@@@QEAAXXZ
	?clear_delete@?$ImVector@PEAUImGuiViewportP@@@@QEAAXXZ
	?clear_delete@?$ImVector@PEAUImGuiWindow@@@@QEAAXXZ
	?clear_delete@?$ImVector@PEAUImTextureData@@@@QEAAXXZ
	?clear_destruct@?$ImVector@UImGuiListClipperData@@@@QEAAXXZ
	?clear_destruct@?$ImVector@UImGuiMultiSelectTempData@@@@QEAAXXZ
	?clear_destruct@?$ImVector@UImGuiOldColumns@@@@QEAAXXZ
	?clear_destruct@?$ImVector@UImGuiTableTempData@@@@QEAAXXZ
	?contains@?$ImVector@H@@QEBA_NAEBH@Z
	?contains@?$ImVector@I@@QEBA_NAEBI@Z
	?contains@?$ImVector@PEAUImDrawListSharedData@@@@QEBA_NAEBQEAUImDrawListSharedData@@@Z
	?contains@?$ImVector@PEAUImFontConfig@@@@QEBA_NAEBQEAUImFontConfig@@@Z
	?contains@?$ImVector@PEAUImGuiWindow@@@@QEBA_NAEBQEAUImGuiWindow@@@Z
	?copy@?$_Char_traits@DH@std@@SAPEADQEADQEBD_K@Z
	?deallocate@?$allocator@D@std@@QEAAXQEAD_K@Z
	?empty@?$ImChunkStream@UImGuiWindowSettings@@@@QEBA_NXZ
	?empty@?$ImVector@D@@QEBA_NXZ
	?empty@?$ImVector@G@@QEBA_NXZ
	?empty@?$ImVector@PEAUImDrawList@@@@QEBA_NXZ
	?empty@?$ImVector@PEAUImFont@@@@QEBA_NXZ
	?empty@?$ImVector@PEAUMyDocument@@@@QEBA_NXZ
	?empty@?$ImVector@UImGuiPtrOrIndex@@@@QEBA_NXZ
	?empty@?$ImVector@UImGuiTextRange@ImGuiTextFilter@@@@QEBA_NXZ
	?empty@?$ImVector@UImGuiWindowStackData@@@@QEBA_NXZ
	?empty@ImGuiTextBuffer@@QEBA_NXZ
	?empty@ImGuiTextRange@ImGuiTextFilter@@QEBA_NXZ
	?end@?$ImChunkStream@UImGuiTableSettings@@@@QEAAPEAUImGuiTableSettings@@XZ
	?end@?$ImChunkStream@UImGuiWindowSettings@@@@QEAAPEAUImGuiWindowSettings@@XZ
	?end@?$ImVector@G@@QEAAPEAGXZ
	?end@?$ImVector@I@@QEAAPEAIXZ
	?end@?$ImVector@PEAD@@QEAAPEAPEADXZ
	?end@?$ImVector@PEAUExampleTreeNode@@@@QEAAPEAPEAUExampleTreeNode@@XZ
	?end@?$ImVector@PEAUImDrawList@@@@QEAAPEAPEAUImDrawList@@XZ
	?end@?$ImVector@PEAUImDrawListSharedData@@@@QEAAPEAPEAUImDrawListSharedData@@XZ
	?end@?$ImVector@PEAUImFont@@@@QEAAPEAPEAUImFont@@XZ
	?end@?$ImVector@PEAUImFontAtlas@@@@QEAAPEAPEAUImFontAtlas@@XZ
	?end@?$ImVector@PEAUImFontBaked@@@@QEAAPEAPEAUImFontBaked@@XZ
	?end@?$ImVector@PEAUImFontConfig@@@@QEAAPEAPEAUImFontConfig@@XZ
	?end@?$ImVector@PEAUImGuiViewportP@@@@QEAAPEAPEAUImGuiViewportP@@XZ
	?end@?$ImVector@PEAUImGuiWindow@@@@QEAAPEAPEAUImGuiWindow@@XZ
	?end@?$ImVector@PEAUImTextureData@@@@QEAAPEAPEAUImTextureData@@XZ
	?end@?$ImVector@PEAUMyDocument@@@@QEAAPEAPEAUMyDocument@@XZ
	?end@?$ImVector@UImDrawCmd@@@@QEAAPEAUImDrawCmd@@XZ
	?end@?$ImVector@UImFontAtlasRectEntry@@@@QEAAPEAUImFontAtlasRectEntry@@XZ
	?end@?$ImVector@UImFontConfig@@@@QEAAPEAUImFontConfig@@XZ
	?end@?$ImVector@UImFontGlyph@@@@QEAAPEAUImFontGlyph@@XZ
	?end@?$ImVector@UImFontStackData@@@@QEAAPEAUImFontStackData@@XZ
	?end@?$ImVector@UImGuiContextHook@@@@QEAAPEAUImGuiContextHook@@XZ
	?end@?$ImVector@UImGuiListClipperRange@@@@QEAAPEAUImGuiListClipperRange@@XZ
	?end@?$ImVector@UImGuiOldColumnData@@@@QEAAPEAUImGuiOldColumnData@@XZ
	?end@?$ImVector@UImGuiOldColumns@@@@QEAAPEAUImGuiOldColumns@@XZ
	?end@?$ImVector@UImGuiPopupData@@@@QEAAPEAUImGuiPopupData@@XZ
	?end@?$ImVector@UImGuiSelectionRequest@@@@QEAAPEAUImGuiSelectionRequest@@XZ
	?end@?$ImVector@UImGuiSelectionRequest@@@@QEBAPEBUImGuiSelectionRequest@@XZ
	?end@?$ImVector@UImGuiSettingsHandler@@@@QEAAPEAUImGuiSettingsHandler@@XZ
	?end@?$ImVector@UImGuiStoragePair@@@@QEAAPEAUImGuiStoragePair@@XZ
	?end@?$ImVector@UImGuiTableTempData@@@@QEAAPEAUImGuiTableTempData@@XZ
	?end@?$ImVector@UImGuiTextRange@ImGuiTextFilter@@@@QEAAPEAUImGuiTextRange@ImGuiTextFilter@@XZ
	?end@?$ImVector@UImGuiTextRange@ImGuiTextFilter@@@@QEBAPEBUImGuiTextRange@ImGuiTextFilter@@XZ
	?end@?$ImVector@UImTextureRect@@@@QEAAPEAUImTextureRect@@XZ
	?end@?$ImVector@UImTextureRef@@@@QEAAPEAUImTextureRef@@XZ
	?end@?$ImVector@UMyDocument@@@@QEAAPEAUMyDocument@@XZ
	?end@ImGuiTextBuffer@@QEBAPEBDXZ
	?erase@?$ImVector@H@@QEAAPEAHPEBH@Z
	?erase@?$ImVector@I@@QEAAPEAIPEBI@Z
	?erase@?$ImVector@PEAD@@QEAAPEAPEADPEBQEAD@Z
	?erase@?$ImVector@PEAUImDrawListSharedData@@@@QEAAPEAPEAUImDrawListSharedData@@PEBQEAU2@@Z
	?erase@?$ImVector@PEAUImFont@@@@QEAAPEAPEAUImFont@@PEBQEAU2@@Z
	?erase@?$ImVector@PEAUImFontAtlas@@@@QEAAPEAPEAUImFontAtlas@@PEBQEAU2@@Z
	?erase@?$ImVector@PEAUImGuiWindow@@@@QEAAPEAPEAUImGuiWindow@@PEBQEAU2@@Z
	?erase@?$ImVector@PEAUImTextureData@@@@QEAAPEAPEAUImTextureData@@PEBQEAU2@@Z
	?erase@?$ImVector@UImDrawCmd@@@@QEAAPEAUImDrawCmd@@PEBU2@@Z
	?erase@?$ImVector@UImFontConfig@@@@QEAAPEAUImFontConfig@@PEBU2@@Z
	?erase@?$ImVector@UImGuiContextHook@@@@QEAAPEAUImGuiContextHook@@PEBU2@@Z
	?erase@?$ImVector@UImGuiInputEvent@@@@QEAAPEAUImGuiInputEvent@@PEBU2@0@Z
	?erase@?$ImVector@UImGuiListClipperRange@@@@QEAAPEAUImGuiListClipperRange@@PEBU2@@Z
	?erase@?$ImVector@UImGuiSettingsHandler@@@@QEAAPEAUImGuiSettingsHandler@@PEBU2@@Z
	?erase@?$ImVector@UImGuiTabItem@@@@QEAAPEAUImGuiTabItem@@PEBU2@@Z
	?erase_unsorted@?$ImVector@H@@QEAAPEAHPEBH@Z
	?erase_unsorted@?$ImVector@PEAUImDrawList@@@@QEAAPEAPEAUImDrawList@@PEBQEAU2@@Z
	?find@?$ImVector@H@@QEAAPEAHAEBH@Z
	?find@?$ImVector@PEAUImDrawList@@@@QEAAPEAPEAUImDrawList@@AEBQEAU2@@Z
	?find@?$ImVector@PEAUImDrawListSharedData@@@@QEAAPEAPEAUImDrawListSharedData@@AEBQEAU2@@Z
	?find@?$ImVector@PEAUImFont@@@@QEAAPEAPEAUImFont@@AEBQEAU2@@Z
	?find@?$ImVector@PEAUImFontAtlas@@@@QEAAPEAPEAUImFontAtlas@@AEBQEAU2@@Z
	?find@?$ImVector@PEAUImGuiWindow@@@@QEAAPEAPEAUImGuiWindow@@AEBQEAU2@@Z
	?find@?$ImVector@PEAUImTextureData@@@@QEAAPEAPEAUImTextureData@@AEBQEAU2@@Z
	?find_erase@?$ImVector@PEAUImDrawListSharedData@@@@QEAA_NAEBQEAUImDrawListSharedData@@@Z
	?find_erase@?$ImVector@PEAUImFont@@@@QEAA_NAEBQEAUImFont@@@Z
	?find_erase@?$ImVector@PEAUImFontAtlas@@@@QEAA_NAEBQEAUImFontAtlas@@@Z
	?find_erase@?$ImVector@PEAUImTextureData@@@@QEAA_NAEBQEAUImTextureData@@@Z
	?find_erase_unsorted@?$ImVector@H@@QEAA_NAEBH@Z
	?find_erase_unsorted@?$ImVector@PEAUImDrawList@@@@QEAA_NAEBQEAUImDrawList@@@Z
	?find_erase_unsorted@ImTriangulatorNodeSpan@@QEAAXH@Z
	?front@?$ImVector@D@@QEBAAEBDXZ
	?get_line_begin@ImGuiTextIndex@@QEAAPEBDPEBDH@Z
	?get_line_end@ImGuiTextIndex@@QEAAPEBDPEBDH@Z
	?hkEndScene@@YAJPEAUIDirect3DDevice9@@@Z
	?hkProcessEvent@@YAXPEAX00@Z
	?hkWndProc@@YA_JPEAUHWND__@@I_K_J@Z
	?index_from_ptr@?$ImSpan@UImGuiTableColumn@@@@QEBAHPEBUImGuiTableColumn@@@Z
	?index_from_ptr@?$ImVector@PEAUImGuiWindow@@@@QEBAHPEBQEAUImGuiWindow@@@Z
	?index_from_ptr@?$ImVector@UImFontAtlasRectEntry@@@@QEBAHPEBUImFontAtlasRectEntry@@@Z
	?index_from_ptr@?$ImVector@UImFontGlyph@@@@QEBAHPEBUImFontGlyph@@@Z
	?index_from_ptr@?$ImVector@UImGuiOldColumnData@@@@QEBAHPEBUImGuiOldColumnData@@@Z
	?index_from_ptr@?$ImVector@UImGuiTabItem@@@@QEBAHPEBUImGuiTabItem@@@Z
	?insert@?$ImVector@PEAUImGuiWindow@@@@QEAAPEAPEAUImGuiWindow@@PEBQEAU2@AEBQEAU2@@Z
	?insert@?$ImVector@UImDrawCmd@@@@QEAAPEAUImDrawCmd@@PEBU2@AEBU2@@Z
	?insert@?$ImVector@UImGuiListClipperRange@@@@QEAAPEAUImGuiListClipperRange@@PEBU2@AEBU2@@Z
	?insert@?$ImVector@UImGuiStoragePair@@@@QEAAPEAUImGuiStoragePair@@PEBU2@AEBU2@@Z
	?max_size@?$_Default_allocator_traits@V?$allocator@D@std@@@std@@SA_KAEBV?$allocator@D@2@@Z
	?max_size@?$basic_string@DU?$char_traits@D@std@@V?$allocator@D@2@@std@@QEBA_KXZ
	?memchr@@YAPEAXPEAXH_K@Z
	?next_chunk@?$ImChunkStream@UImGuiTableSettings@@@@QEAAPEAUImGuiTableSettings@@PEAU2@@Z
	?next_chunk@?$ImChunkStream@UImGuiWindowSettings@@@@QEAAPEAUImGuiWindowSettings@@PEAU2@@Z
	?offset_from_ptr@?$ImChunkStream@UImGuiTableSettings@@@@QEAAHPEBUImGuiTableSettings@@@Z
	?offset_from_ptr@?$ImChunkStream@UImGuiWindowSettings@@@@QEAAHPEBUImGuiWindowSettings@@@Z
	?pop_back@?$ImVector@H@@QEAAXXZ
	?pop_back@?$ImVector@I@@QEAAXXZ
	?pop_back@?$ImVector@M@@QEAAXXZ
	?pop_back@?$ImVector@PEAUImFont@@@@QEAAXXZ
	?pop_back@?$ImVector@PEAUImFontConfig@@@@QEAAXXZ
	?pop_back@?$ImVector@UImDrawCmd@@@@QEAAXXZ
	?pop_back@?$ImVector@UImFontConfig@@@@QEAAXXZ
	?pop_back@?$ImVector@UImFontStackData@@@@QEAAXXZ
	?pop_back@?$ImVector@UImGuiColorMod@@@@QEAAXXZ
	?pop_back@?$ImVector@UImGuiFocusScopeData@@@@QEAAXXZ
	?pop_back@?$ImVector@UImGuiGroupData@@@@QEAAXXZ
	?pop_back@?$ImVector@UImGuiPopupData@@@@QEAAXXZ
	?pop_back@?$ImVector@UImGuiPtrOrIndex@@@@QEAAXXZ
	?pop_back@?$ImVector@UImGuiStyleMod@@@@QEAAXXZ
	?pop_back@?$ImVector@UImGuiTreeNodeStackData@@@@QEAAXXZ
	?pop_back@?$ImVector@UImGuiWindowStackData@@@@QEAAXXZ
	?pop_back@?$ImVector@UImTextureRef@@@@QEAAXXZ
	?pop_back@?$ImVector@UImVec4@@@@QEAAXXZ
	?ptr_from_offset@?$ImChunkStream@UImGuiTableSettings@@@@QEAAPEAUImGuiTableSettings@@H@Z
	?ptr_from_offset@?$ImChunkStream@UImGuiWindowSettings@@@@QEAAPEAUImGuiWindowSettings@@H@Z
	?push_back@?$ImStableVector@UImFontBaked@@$0CA@@@QEAAPEAUImFontBaked@@AEBU2@@Z
	?push_back@?$ImVector@D@@QEAAXAEBD@Z
	?push_back@?$ImVector@G@@QEAAXAEBG@Z
	?push_back@?$ImVector@H@@QEAAXAEBH@Z
	?push_back@?$ImVector@I@@QEAAXAEBI@Z
	?push_back@?$ImVector@M@@QEAAXAEBM@Z
	?push_back@?$ImVector@PEAD@@QEAAXAEBQEAD@Z
	?push_back@?$ImVector@PEAUExampleTreeNode@@@@QEAAXAEBQEAUExampleTreeNode@@@Z
	?push_back@?$ImVector@PEAUImDrawList@@@@QEAAXAEBQEAUImDrawList@@@Z
	?push_back@?$ImVector@PEAUImDrawListSharedData@@@@QEAAXAEBQEAUImDrawListSharedData@@@Z
	?push_back@?$ImVector@PEAUImFont@@@@QEAAXAEBQEAUImFont@@@Z
	?push_back@?$ImVector@PEAUImFontAtlas@@@@QEAAXAEBQEAUImFontAtlas@@@Z
	?push_back@?$ImVector@PEAUImFontConfig@@@@QEAAXAEBQEAUImFontConfig@@@Z
	?push_back@?$ImVector@PEAUImGuiViewportP@@@@QEAAXAEBQEAUImGuiViewportP@@@Z
	?push_back@?$ImVector@PEAUImGuiWindow@@@@QEAAXAEBQEAUImGuiWindow@@@Z
	?push_back@?$ImVector@PEAUImTextureData@@@@QEAAXAEBQEAUImTextureData@@@Z
	?push_back@?$ImVector@PEAUMyDocument@@@@QEAAXAEBQEAUMyDocument@@@Z
	?push_back@?$ImVector@PEBD@@QEAAXAEBQEBD@Z
	?push_back@?$ImVector@UExampleAsset@@@@QEAAXAEBUExampleAsset@@@Z
	?push_back@?$ImVector@UImDrawCmd@@@@QEAAXAEBUImDrawCmd@@@Z
	?push_back@?$ImVector@UImFontConfig@@@@QEAAXAEBUImFontConfig@@@Z
	?push_back@?$ImVector@UImFontGlyph@@@@QEAAXAEBUImFontGlyph@@@Z
	?push_back@?$ImVector@UImFontStackData@@@@QEAAXAEBUImFontStackData@@@Z
	?push_back@?$ImVector@UImGuiColorMod@@@@QEAAXAEBUImGuiColorMod@@@Z
	?push_back@?$ImVector@UImGuiContextHook@@@@QEAAXAEBUImGuiContextHook@@@Z
	?push_back@?$ImVector@UImGuiFocusScopeData@@@@QEAAXAEBUImGuiFocusScopeData@@@Z
	?push_back@?$ImVector@UImGuiInputEvent@@@@QEAAXAEBUImGuiInputEvent@@@Z
	?push_back@?$ImVector@UImGuiKeyRoutingData@@@@QEAAXAEBUImGuiKeyRoutingData@@@Z
	?push_back@?$ImVector@UImGuiListClipperRange@@@@QEAAXAEBUImGuiListClipperRange@@@Z
	?push_back@?$ImVector@UImGuiOldColumnData@@@@QEAAXAEBUImGuiOldColumnData@@@Z
	?push_back@?$ImVector@UImGuiOldColumns@@@@QEAAXAEBUImGuiOldColumns@@@Z
	?push_back@?$ImVector@UImGuiPopupData@@@@QEAAXAEBUImGuiPopupData@@@Z
	?push_back@?$ImVector@UImGuiPtrOrIndex@@@@QEAAXAEBUImGuiPtrOrIndex@@@Z
	?push_back@?$ImVector@UImGuiSelectionRequest@@@@QEAAXAEBUImGuiSelectionRequest@@@Z
	?push_back@?$ImVector@UImGuiSettingsHandler@@@@QEAAXAEBUImGuiSettingsHandler@@@Z
	?push_back@?$ImVector@UImGuiStoragePair@@@@QEAAXAEBUImGuiStoragePair@@@Z
	?push_back@?$ImVector@UImGuiStyleMod@@@@QEAAXAEBUImGuiStyleMod@@@Z
	?push_back@?$ImVector@UImGuiTabItem@@@@QEAAXAEBUImGuiTabItem@@@Z
	?push_back@?$ImVector@UImGuiTableHeaderData@@@@QEAAXAEBUImGuiTableHeaderData@@@Z
	?push_back@?$ImVector@UImGuiTableInstanceData@@@@QEAAXAEBUImGuiTableInstanceData@@@Z
	?push_back@?$ImVector@UImGuiTextRange@ImGuiTextFilter@@@@QEAAXAEBUImGuiTextRange@ImGuiTextFilter@@@Z
	?push_back@?$ImVector@UImTextureRect@@@@QEAAXAEBUImTextureRect@@@Z
	?push_back@?$ImVector@UImTextureRef@@@@QEAAXAEBUImTextureRef@@@Z
	?push_back@?$ImVector@UImVec2@@@@QEAAXAEBUImVec2@@@Z
	?push_back@?$ImVector@UImVec4@@@@QEAAXAEBUImVec4@@@Z
	?push_back@?$ImVector@UMyDocument@@@@QEAAXAEBUMyDocument@@@Z
	?push_back@ImTriangulatorNodeSpan@@QEAAXPEAUImTriangulatorNode@@@Z
	?push_front@?$ImVector@PEAUImGuiWindow@@@@QEAAXAEBQEAUImGuiWindow@@@Z
	?push_front@?$ImVector@UImDrawCmd@@@@QEAAXAEBUImDrawCmd@@@Z
	?push_front@?$ImVector@UImGuiListClipperRange@@@@QEAAXAEBUImGuiListClipperRange@@@Z
	?reserve@?$ImStableVector@UImFontBaked@@$0CA@@@QEAAXH@Z
	?reserve@?$ImVector@D@@QEAAXH@Z
	?reserve@?$ImVector@E@@QEAAXH@Z
	?reserve@?$ImVector@G@@QEAAXH@Z
	?reserve@?$ImVector@H@@QEAAXH@Z
	?reserve@?$ImVector@I@@QEAAXH@Z
	?reserve@?$ImVector@M@@QEAAXH@Z
	?reserve@?$ImVector@PEAD@@QEAAXH@Z
	?reserve@?$ImVector@PEAUExampleTreeNode@@@@QEAAXH@Z
	?reserve@?$ImVector@PEAUImDrawList@@@@QEAAXH@Z
	?reserve@?$ImVector@PEAUImDrawListSharedData@@@@QEAAXH@Z
	?reserve@?$ImVector@PEAUImFont@@@@QEAAXH@Z
	?reserve@?$ImVector@PEAUImFontAtlas@@@@QEAAXH@Z
	?reserve@?$ImVector@PEAUImFontBaked@@@@QEAAXH@Z
	?reserve@?$ImVector@PEAUImFontConfig@@@@QEAAXH@Z
	?reserve@?$ImVector@PEAUImGuiViewportP@@@@QEAAXH@Z
	?reserve@?$ImVector@PEAUImGuiWindow@@@@QEAAXH@Z
	?reserve@?$ImVector@PEAUImTextureData@@@@QEAAXH@Z
	?reserve@?$ImVector@PEAUMyDocument@@@@QEAAXH@Z
	?reserve@?$ImVector@PEBD@@QEAAXH@Z
	?reserve@?$ImVector@UExampleAsset@@@@QEAAXH@Z
	?reserve@?$ImVector@UImDrawChannel@@@@QEAAXH@Z
	?reserve@?$ImVector@UImDrawCmd@@@@QEAAXH@Z
	?reserve@?$ImVector@UImDrawVert@@@@QEAAXH@Z
	?reserve@?$ImVector@UImFontAtlasRectEntry@@@@QEAAXH@Z
	?reserve@?$ImVector@UImFontConfig@@@@QEAAXH@Z
	?reserve@?$ImVector@UImFontGlyph@@@@QEAAXH@Z
	?reserve@?$ImVector@UImFontStackData@@@@QEAAXH@Z
	?reserve@?$ImVector@UImGuiColorMod@@@@QEAAXH@Z
	?reserve@?$ImVector@UImGuiContextHook@@@@QEAAXH@Z
	?reserve@?$ImVector@UImGuiFocusScopeData@@@@QEAAXH@Z
	?reserve@?$ImVector@UImGuiGroupData@@@@QEAAXH@Z
	?reserve@?$ImVector@UImGuiInputEvent@@@@QEAAXH@Z
	?reserve@?$ImVector@UImGuiKeyRoutingData@@@@QEAAXH@Z
	?reserve@?$ImVector@UImGuiListClipperData@@@@QEAAXH@Z
	?reserve@?$ImVector@UImGuiListClipperRange@@@@QEAAXH@Z
	?reserve@?$ImVector@UImGuiMultiSelectState@@@@QEAAXH@Z
	?reserve@?$ImVector@UImGuiMultiSelectTempData@@@@QEAAXH@Z
	?reserve@?$ImVector@UImGuiOldColumnData@@@@QEAAXH@Z
	?reserve@?$ImVector@UImGuiOldColumns@@@@QEAAXH@Z
	?reserve@?$ImVector@UImGuiPopupData@@@@QEAAXH@Z
	?reserve@?$ImVector@UImGuiPtrOrIndex@@@@QEAAXH@Z
	?reserve@?$ImVector@UImGuiSelectionRequest@@@@QEAAXH@Z
	?reserve@?$ImVector@UImGuiSettingsHandler@@@@QEAAXH@Z
	?reserve@?$ImVector@UImGuiShrinkWidthItem@@@@QEAAXH@Z
	?reserve@?$ImVector@UImGuiStackLevelInfo@@@@QEAAXH@Z
	?reserve@?$ImVector@UImGuiStoragePair@@@@QEAAXH@Z
	?reserve@?$ImVector@UImGuiStyleMod@@@@QEAAXH@Z
	?reserve@?$ImVector@UImGuiTabBar@@@@QEAAXH@Z
	?reserve@?$ImVector@UImGuiTabItem@@@@QEAAXH@Z
	?reserve@?$ImVector@UImGuiTable@@@@QEAAXH@Z
	?reserve@?$ImVector@UImGuiTableColumnSortSpecs@@@@QEAAXH@Z
	?reserve@?$ImVector@UImGuiTableHeaderData@@@@QEAAXH@Z
	?reserve@?$ImVector@UImGuiTableInstanceData@@@@QEAAXH@Z
	?reserve@?$ImVector@UImGuiTableTempData@@@@QEAAXH@Z
	?reserve@?$ImVector@UImGuiTextRange@ImGuiTextFilter@@@@QEAAXH@Z
	?reserve@?$ImVector@UImGuiTreeNodeStackData@@@@QEAAXH@Z
	?reserve@?$ImVector@UImGuiWindowStackData@@@@QEAAXH@Z
	?reserve@?$ImVector@UImTextureRect@@@@QEAAXH@Z
	?reserve@?$ImVector@UImTextureRef@@@@QEAAXH@Z
	?reserve@?$ImVector@UImVec2@@@@QEAAXH@Z
	?reserve@?$ImVector@UImVec4@@@@QEAAXH@Z
	?reserve@?$ImVector@UMyDocument@@@@QEAAXH@Z
	?reserve@?$ImVector@Ustbrp_node@@@@QEAAXH@Z
	?reserve@?$ImVector@_W@@QEAAXH@Z
	?reserve@ImGuiTextBuffer@@QEAAXH@Z
	?reserve_discard@?$ImVector@UImVec2@@@@QEAAXH@Z
	?resize@?$ImVector@D@@QEAAXH@Z
	?resize@?$ImVector@D@@QEAAXHAEBD@Z
	?resize@?$ImVector@E@@QEAAXH@Z
	?resize@?$ImVector@G@@QEAAXH@Z
	?resize@?$ImVector@G@@QEAAXHAEBG@Z
	?resize@?$ImVector@H@@QEAAXH@Z
	?resize@?$ImVector@I@@QEAAXH@Z
	?resize@?$ImVector@M@@QEAAXH@Z
	?resize@?$ImVector@M@@QEAAXHAEBM@Z
	?resize@?$ImVector@PEAUImDrawList@@@@QEAAXH@Z
	?resize@?$ImVector@PEAUImFontBaked@@@@QEAAXH@Z
	?resize@?$ImVector@PEAUImFontConfig@@@@QEAAXH@Z
	?resize@?$ImVector@PEAUImGuiWindow@@@@QEAAXH@Z
	?resize@?$ImVector@PEAUImTextureData@@@@QEAAXH@Z
	?resize@?$ImVector@UImDrawChannel@@@@QEAAXH@Z
	?resize@?$ImVector@UImDrawCmd@@@@QEAAXH@Z
	?resize@?$ImVector@UImDrawVert@@@@QEAAXH@Z
	?resize@?$ImVector@UImFontAtlasRectEntry@@@@QEAAXH@Z
	?resize@?$ImVector@UImGuiFocusScopeData@@@@QEAAXH@Z
	?resize@?$ImVector@UImGuiGroupData@@@@QEAAXH@Z
	?resize@?$ImVector@UImGuiInputEvent@@@@QEAAXH@Z
	?resize@?$ImVector@UImGuiKeyRoutingData@@@@QEAAXH@Z
	?resize@?$ImVector@UImGuiListClipperData@@@@QEAAXHAEBUImGuiListClipperData@@@Z
	?resize@?$ImVector@UImGuiListClipperRange@@@@QEAAXH@Z
	?resize@?$ImVector@UImGuiMultiSelectState@@@@QEAAXH@Z
	?resize@?$ImVector@UImGuiMultiSelectTempData@@@@QEAAXHAEBUImGuiMultiSelectTempData@@@Z
	?resize@?$ImVector@UImGuiOldColumnData@@@@QEAAXH@Z
	?resize@?$ImVector@UImGuiPopupData@@@@QEAAXH@Z
	?resize@?$ImVector@UImGuiSelectionRequest@@@@QEAAXH@Z
	?resize@?$ImVector@UImGuiShrinkWidthItem@@@@QEAAXH@Z
	?resize@?$ImVector@UImGuiStackLevelInfo@@@@QEAAXH@Z
	?resize@?$ImVector@UImGuiStackLevelInfo@@@@QEAAXHAEBUImGuiStackLevelInfo@@@Z
	?resize@?$ImVector@UImGuiStoragePair@@@@QEAAXH@Z
	?resize@?$ImVector@UImGuiTabBar@@@@QEAAXH@Z
	?resize@?$ImVector@UImGuiTabItem@@@@QEAAXH@Z
	?resize@?$ImVector@UImGuiTable@@@@QEAAXH@Z
	?resize@?$ImVector@UImGuiTableColumnSortSpecs@@@@QEAAXH@Z
	?resize@?$ImVector@UImGuiTableHeaderData@@@@QEAAXH@Z
	?resize@?$ImVector@UImGuiTableTempData@@@@QEAAXHAEBUImGuiTableTempData@@@Z
	?resize@?$ImVector@UImGuiTextRange@ImGuiTextFilter@@@@QEAAXH@Z
	?resize@?$ImVector@UImGuiTreeNodeStackData@@@@QEAAXH@Z
	?resize@?$ImVector@UImGuiWindowStackData@@@@QEAAXH@Z
	?resize@?$ImVector@UImTextureRect@@@@QEAAXH@Z
	?resize@?$ImVector@UImTextureRef@@@@QEAAXH@Z
	?resize@?$ImVector@UImVec2@@@@QEAAXH@Z
	?resize@?$ImVector@UImVec4@@@@QEAAXH@Z
	?resize@?$ImVector@Ustbrp_node@@@@QEAAXH@Z
	?resize@?$ImVector@_W@@QEAAXH@Z
	?resize@?$basic_string@DU?$char_traits@D@std@@V?$allocator@D@2@@std@@QEAAX_KD@Z
	?resize@ImGuiTextBuffer@@QEAAXH@Z
	?set@?$ImSpan@F@@QEAAXPEAF0@Z
	?set@?$ImSpan@UImGuiTableCellData@@@@QEAAXPEAUImGuiTableCellData@@0@Z
	?set@?$ImSpan@UImGuiTableColumn@@@@QEAAXPEAUImGuiTableColumn@@0@Z
	?shrink@?$ImVector@G@@QEAAXH@Z
	?shrink@?$ImVector@UImDrawVert@@@@QEAAXH@Z
	?size@?$ImChunkStream@UImGuiTableSettings@@@@QEBAHXZ
	?size@?$ImChunkStream@UImGuiWindowSettings@@@@QEBAHXZ
	?size@?$ImSpan@UImGuiTableColumn@@@@QEBAHXZ
	?size@?$ImVector@D@@QEBAHXZ
	?size@?$ImVector@UImVec2@@@@QEBAHXZ
	?size@?$basic_string@DU?$char_traits@D@std@@V?$allocator@D@2@@std@@QEBA_KXZ
	?size@ImGuiTextBuffer@@QEBAHXZ
	?size@ImGuiTextIndex@@QEAAHXZ
	?size_in_bytes@?$ImVector@H@@QEBAHXZ
	?size_in_bytes@?$ImVector@I@@QEBAHXZ
	?size_in_bytes@?$ImVector@UImGuiStoragePair@@@@QEBAHXZ
	?split@ImGuiTextRange@ImGuiTextFilter@@QEBAXDPEAU?$ImVector@UImGuiTextRange@ImGuiTextFilter@@@@@Z
	?swap@?$ImChunkStream@UImGuiTableSettings@@@@QEAAXAEAU1@@Z
	?swap@?$ImVector@D@@QEAAXAEAU1@@Z
	?swap@?$ImVector@G@@QEAAXAEAU1@@Z
	?swap@?$ImVector@H@@QEAAXAEAU1@@Z
	?swap@?$ImVector@I@@QEAAXAEAU1@@Z
	?swap@?$ImVector@M@@QEAAXAEAU1@@Z
	?swap@?$ImVector@PEAUImGuiWindow@@@@QEAAXAEAU1@@Z
	?swap@?$ImVector@UExampleAsset@@@@QEAAXAEAU1@@Z
	?swap@?$ImVector@UImDrawVert@@@@QEAAXAEAU1@@Z
	?swap@?$ImVector@UImGuiKeyRoutingData@@@@QEAAXAEAU1@@Z
	?swap@?$ImVector@UImGuiStoragePair@@@@QEAAXAEAU1@@Z
	?swap@?$ImVector@UImTextureRect@@@@QEAAXAEAU1@@Z
	?what@exception@std@@UEBAPEBDXZ
	DllMain
	MH_ApplyQueued
	MH_CreateHook
	MH_CreateHookApi
	MH_CreateHookApiEx
	MH_DisableHook
	MH_EnableHook
	MH_Initialize
	MH_QueueDisableHook
	MH_QueueEnableHook
	MH_RemoveHook
	MH_StatusToString
	MH_Uninitialize
	__local_stdio_printf_options
	__local_stdio_scanf_options
	_snprintf
	_vfprintf_l
	_vsnprintf
	_vsnprintf_l
	_vsprintf_l
	_vsscanf_l
	fabsf
	fprintf
	hde64_disasm
	printf
	sprintf
	sscanf
